

Microchip Technology PIC18 PRO Macro Assembler V1.45 build -152302408 
                                                                                               Wed Jan 16 12:41:33 2019

Microchip Technology Omniscient Code Generator v1.45 (PRO mode) build 201711160504
     1                           	processor	18F46Q10
     2                           	fnconf	rparam,??,?,0
     3                           	opt	pw 120
     4                           	opt	pm
     5                           	psect	idataBANK0,global,class=CODE,delta=1,noexec
     6                           	psect	smallconst,global,reloc=2,class=SMALLCONST,delta=1,noexec
     7                           	psect	nvBANK0,global,class=BANK0,space=1,delta=1,lowdata,noexec
     8                           	psect	cinit,global,reloc=2,class=CODE,delta=1
     9                           	psect	bssCOMRAM,global,class=COMRAM,space=1,delta=1,noexec
    10                           	psect	bssBANK0,global,class=BANK0,space=1,delta=1,lowdata,noexec
    11                           	psect	dataBANK0,global,class=BANK0,space=1,delta=1,lowdata,noexec
    12                           	psect	cstackBANK0,global,class=BANK0,space=1,delta=1,noexec
    13                           	psect	cstackCOMRAM,global,class=COMRAM,space=1,delta=1,noexec
    14                           	psect	text0,global,reloc=2,class=CODE,delta=1
    15                           	psect	text1,global,reloc=2,class=CODE,delta=1
    16                           	psect	text2,global,reloc=2,class=CODE,delta=1
    17                           	psect	text3,global,reloc=2,class=CODE,delta=1
    18                           	psect	text4,global,reloc=2,class=CODE,delta=1
    19                           	psect	text5,global,reloc=2,class=CODE,delta=1
    20                           	psect	text6,global,reloc=2,class=CODE,delta=1
    21                           	psect	text7,global,reloc=2,class=CODE,delta=1
    22                           	psect	text8,global,reloc=2,class=CODE,delta=1
    23                           	psect	text9,global,reloc=2,class=CODE,delta=1
    24                           	psect	text10,global,reloc=2,class=CODE,delta=1
    25                           	psect	text11,global,reloc=2,class=CODE,delta=1
    26                           	psect	text12,global,reloc=2,class=CODE,delta=1
    27                           	psect	text13,global,reloc=2,class=CODE,delta=1
    28                           	psect	text14,global,reloc=2,class=CODE,delta=1
    29                           	psect	text15,global,reloc=2,class=CODE,delta=1
    30                           	psect	text16,global,reloc=2,class=CODE,delta=1
    31                           	psect	text17,global,reloc=2,class=CODE,delta=1
    32                           	psect	text18,global,reloc=2,class=CODE,delta=1
    33                           	psect	text19,global,reloc=2,class=CODE,delta=1
    34                           	psect	text20,global,reloc=2,class=CODE,delta=1
    35                           	psect	text21,global,reloc=2,class=CODE,delta=1
    36                           	psect	text22,global,reloc=2,class=CODE,delta=1
    37                           	psect	text23,global,reloc=2,class=CODE,delta=1
    38                           	psect	text24,global,reloc=2,class=CODE,delta=1
    39                           	psect	text25,global,reloc=2,class=CODE,delta=1
    40                           	psect	text26,global,reloc=2,class=CODE,delta=1
    41                           	psect	text27,global,reloc=2,class=CODE,delta=1
    42                           	psect	text28,global,reloc=2,class=CODE,delta=1
    43                           	psect	text29,global,reloc=2,class=CODE,delta=1
    44                           	psect	text30,global,reloc=2,class=CODE,delta=1,group=1
    45                           	psect	text31,global,reloc=2,class=CODE,delta=1,group=1
    46                           	psect	text32,global,reloc=2,class=CODE,delta=1,group=1
    47                           	psect	text33,global,reloc=2,class=CODE,delta=1
    48                           	psect	text34,global,reloc=2,class=CODE,delta=1
    49                           	psect	text35,global,reloc=2,class=CODE,delta=1
    50                           	psect	text36,global,reloc=2,class=CODE,delta=1
    51                           	psect	text37,global,reloc=2,class=CODE,delta=1
    52                           	psect	text38,global,reloc=2,class=CODE,delta=1
    53                           	psect	text39,global,reloc=2,class=CODE,delta=1
    54                           	psect	text40,global,reloc=2,class=CODE,delta=1
    55                           	psect	text41,global,reloc=2,class=CODE,delta=1
    56                           	psect	text42,global,reloc=2,class=CODE,delta=1
    57                           	psect	text43,global,reloc=2,class=CODE,delta=1
    58                           	psect	text44,global,reloc=2,class=CODE,delta=1
    59                           	psect	text45,global,reloc=2,class=CODE,delta=1
    60                           	psect	text46,global,reloc=2,class=CODE,delta=1
    61                           	psect	text47,global,reloc=2,class=CODE,delta=1
    62                           	psect	text48,global,reloc=2,class=CODE,delta=1
    63                           	psect	text49,global,reloc=2,class=CODE,delta=1,group=1
    64                           	psect	text50,global,reloc=2,class=CODE,delta=1,group=1
    65                           	psect	text51,global,reloc=2,class=CODE,delta=1,group=1
    66                           	psect	text52,global,reloc=2,class=CODE,delta=1,group=1
    67                           	psect	text53,global,reloc=2,class=CODE,delta=1,group=1
    68                           	psect	text54,global,reloc=2,class=CODE,delta=1,group=1
    69                           	psect	text55,global,reloc=2,class=CODE,delta=1,group=1
    70                           	psect	text56,global,reloc=2,class=CODE,delta=1,group=1
    71                           	psect	text57,global,reloc=2,class=CODE,delta=1,group=1
    72                           	psect	text58,global,reloc=2,class=CODE,delta=1,group=1
    73                           	psect	text59,global,reloc=2,class=CODE,delta=1
    74                           	psect	text60,global,reloc=2,class=CODE,delta=1
    75                           	psect	text61,global,reloc=2,class=CODE,delta=1
    76                           	psect	intcode,global,reloc=2,class=CODE,delta=1
    77                           	psect	text63,global,reloc=2,class=CODE,delta=1
    78                           	psect	text64,global,reloc=2,class=CODE,delta=1
    79                           	psect	text65,global,reloc=2,class=CODE,delta=1
    80                           	psect	text66,global,reloc=2,class=CODE,delta=1
    81                           	psect	text67,global,reloc=2,class=CODE,delta=1
    82                           	psect	text68,global,reloc=2,class=CODE,delta=1
    83                           	psect	text69,global,reloc=2,class=CODE,delta=1
    84                           	psect	text70,global,reloc=2,class=CODE,delta=1
    85                           	psect	text71,global,reloc=2,class=CODE,delta=1
    86                           	psect	text72,global,reloc=2,class=CODE,delta=1
    87                           	psect	intsave_regs,global,class=BIGRAM,space=1,delta=1,noexec
    88                           	psect	text73,global,reloc=2,class=CODE,delta=1
    89                           	psect	rparam,global,class=COMRAM,space=1,delta=1,noexec
    90                           	psect	temp,global,ovrld,common,class=COMRAM,space=1,delta=1
    91                           	psect	pa_nodes0,global,class=CODE,delta=1
    92  0000                     
    93                           ; Version 1.45
    94                           ; Generated 16/11/2017 GMT
    95                           ; 
    96                           ; Copyright © 2017, Microchip Technology Inc. and its subsidiaries ("Microchip")
    97                           ; All rights reserved.
    98                           ; 
    99                           ; This software is developed by Microchip Technology Inc. and its subsidiaries ("Microch
      +                          ip").
   100                           ; 
   101                           ; Redistribution and use in source and binary forms, with or without modification, are
   102                           ; permitted provided that the following conditions are met:
   103                           ; 
   104                           ;     1. Redistributions of source code must retain the above copyright notice, this lis
      +                          t of
   105                           ;        conditions and the following disclaimer.
   106                           ; 
   107                           ;     2. Redistributions in binary form must reproduce the above copyright notice, this 
      +                          list
   108                           ;        of conditions and the following disclaimer in the documentation and/or other
   109                           ;        materials provided with the distribution.
   110                           ; 
   111                           ;     3. Microchip's name may not be used to endorse or promote products derived from th
      +                          is
   112                           ;        software without specific prior written permission.
   113                           ; 
   114                           ; THIS SOFTWARE IS PROVIDED BY MICROCHIP "AS IS" AND ANY EXPRESS OR IMPLIED WARRANTIES,
   115                           ; INCLUDING, BUT NOT LIMITED TO, THE IMPLIED WARRANTIES OF MERCHANTABILITY AND FITNESS F
      +                          OR
   116                           ; PURPOSE ARE DISCLAIMED.  IN NO EVENT SHALL MICROCHIP BE LIABLE FOR ANY DIRECT, INDIREC
      +                          T,
   117                           ; INCIDENTAL, SPECIAL, EXEMPLARY, OR CONSEQUENTIAL DAMAGES (INCLUDING BUT NOT LIMITED TO
   118                           ; PROCUREMENT OF SUBSTITUTE GOODS OR SERVICES; LOSS OF USE, DATA OR PROFITS; OR BUSINESS
   119                           ; INTERRUPTION) HOWSOEVER CAUSED AND ON ANY THEORY OF LIABILITY, WHETHER IN CONTRACT, ST
      +                          RICT
   120                           ; LIABILITY, OR TORT (INCLUDING NEGLIGENCE OR OTHERWISE) ARISING IN ANY WAY OUT OF THE U
      +                          SE OF
   121                           ; THIS SOFTWARE, EVEN IF ADVISED OF THE POSSIBILITY OF SUCH DAMAGE.
   122                           ; 
   123                           ; 
   124                           ; Code-generator required, PIC18F46Q10 Definitions
   125                           ; 
   126                           ; SFR Addresses
   127  0000                     tosu	equ	0xFFF
   128                           tosh	equ	0xFFE
   129                           tosl	equ	0xFFD
   130                           pclath	equ	0xFFA
   131                           tblptru	equ	0xFF8
   132                           tblptrh	equ	0xFF7
   133                           tblptrl	equ	0xFF6
   134                           tablat	equ	0xFF5
   135                           prodl	equ	0xFF3
   136                           intcon	equ	0xFF2
   137                           wreg	equ	0xFE8
   138                           postinc2	equ	0xFDE
   139                           postdec2	equ	0xFDD
   140                           fsr2h	equ	0xFDA
   141                           fsr2l	equ	0xFD9
   142                           status	equ	0xFD8
   143                           
   144                           	psect	idataBANK0
   145  001FF8                     __pidataBANK0:
   146                           	opt stack 0
   147                           
   148                           ;initializer for _remainingAngle
   149  001FF8  0168               	dw	360
   150                           tosu	equ	0xFFF
   151                           tosh	equ	0xFFE
   152                           tosl	equ	0xFFD
   153                           pclath	equ	0xFFA
   154                           tblptru	equ	0xFF8
   155                           tblptrh	equ	0xFF7
   156                           tblptrl	equ	0xFF6
   157                           tablat	equ	0xFF5
   158                           prodl	equ	0xFF3
   159                           intcon	equ	0xFF2
   160                           wreg	equ	0xFE8
   161                           postinc2	equ	0xFDE
   162                           postdec2	equ	0xFDD
   163                           fsr2h	equ	0xFDA
   164                           fsr2l	equ	0xFD9
   165                           status	equ	0xFD8
   166                           
   167                           	psect	smallconst
   168  000F00                     __psmallconst:
   169                           	opt stack 0
   170  000F00  00                 	db	0
   171  000F01                     _dpowers:
   172                           	opt stack 0
   173  000F01  0001               	dw	1
   174  000F03  000A               	dw	10
   175  000F05  0064               	dw	100
   176  000F07  03E8               	dw	1000
   177  000F09  2710               	dw	10000
   178  000F0B                     __end_of_dpowers:
   179                           	opt stack 0
   180  000F0B                     STR_1:
   181                           
   182                           ; BSR set to: 15
   183  000F0B  61                 	db	97	;'a'
   184  000F0C  63                 	db	99	;'c'
   185  000F0D  74                 	db	116	;'t'
   186  000F0E  75                 	db	117	;'u'
   187  000F0F  61                 	db	97	;'a'
   188  000F10  6C                 	db	108	;'l'
   189  000F11  52                 	db	82	;'R'
   190  000F12  69                 	db	105	;'i'
   191  000F13  70                 	db	112	;'p'
   192  000F14  70                 	db	112	;'p'
   193  000F15  6C                 	db	108	;'l'
   194  000F16  65                 	db	101	;'e'
   195  000F17  43                 	db	67	;'C'
   196  000F18  6F                 	db	111	;'o'
   197  000F19  75                 	db	117	;'u'
   198  000F1A  6E                 	db	110	;'n'
   199  000F1B  74                 	db	116	;'t'
   200  000F1C  20                 	db	32
   201  000F1D  3D                 	db	61	;'='
   202  000F1E  20                 	db	32
   203  000F1F  25                 	db	37
   204  000F20  64                 	db	100	;'d'
   205  000F21  20                 	db	32
   206  000F22  0A                 	db	10
   207  000F23  0D                 	db	13
   208  000F24  20                 	db	32
   209  000F25  00                 	db	0
   210  000F26                     STR_3:
   211                           
   212                           ; BSR set to: 15
   213  000F26  74                 	db	116	;'t'
   214  000F27  6F                 	db	111	;'o'
   215  000F28  74                 	db	116	;'t'
   216  000F29  61                 	db	97	;'a'
   217  000F2A  6C                 	db	108	;'l'
   218  000F2B  61                 	db	97	;'a'
   219  000F2C  6E                 	db	110	;'n'
   220  000F2D  67                 	db	103	;'g'
   221  000F2E  6C                 	db	108	;'l'
   222  000F2F  65                 	db	101	;'e'
   223  000F30  54                 	db	84	;'T'
   224  000F31  75                 	db	117	;'u'
   225  000F32  72                 	db	114	;'r'
   226  000F33  6E                 	db	110	;'n'
   227  000F34  65                 	db	101	;'e'
   228  000F35  64                 	db	100	;'d'
   229  000F36  20                 	db	32
   230  000F37  3D                 	db	61	;'='
   231  000F38  25                 	db	37
   232  000F39  64                 	db	100	;'d'
   233  000F3A  20                 	db	32
   234  000F3B  0A                 	db	10
   235  000F3C  0D                 	db	13
   236  000F3D  00                 	db	0
   237  000F3E                     STR_5:
   238                           
   239                           ; BSR set to: 15
   240  000F3E  61                 	db	97	;'a'
   241  000F3F  63                 	db	99	;'c'
   242  000F40  74                 	db	116	;'t'
   243  000F41  75                 	db	117	;'u'
   244  000F42  61                 	db	97	;'a'
   245  000F43  6C                 	db	108	;'l'
   246  000F44  50                 	db	80	;'P'
   247  000F45  6F                 	db	111	;'o'
   248  000F46  73                 	db	115	;'s'
   249  000F47  69                 	db	105	;'i'
   250  000F48  74                 	db	116	;'t'
   251  000F49  69                 	db	105	;'i'
   252  000F4A  6F                 	db	111	;'o'
   253  000F4B  6E                 	db	110	;'n'
   254  000F4C  20                 	db	32
   255  000F4D  3D                 	db	61	;'='
   256  000F4E  20                 	db	32
   257  000F4F  25                 	db	37
   258  000F50  64                 	db	100	;'d'
   259  000F51  20                 	db	32
   260  000F52  0A                 	db	10
   261  000F53  0D                 	db	13
   262  000F54  00                 	db	0
   263  000F55                     STR_2:
   264                           
   265                           ; BSR set to: 15
   266  000F55  41                 	db	65	;'A'
   267  000F56  6E                 	db	110	;'n'
   268  000F57  67                 	db	103	;'g'
   269  000F58  6C                 	db	108	;'l'
   270  000F59  65                 	db	101	;'e'
   271  000F5A  54                 	db	84	;'T'
   272  000F5B  75                 	db	117	;'u'
   273  000F5C  72                 	db	114	;'r'
   274  000F5D  6E                 	db	110	;'n'
   275  000F5E  65                 	db	101	;'e'
   276  000F5F  64                 	db	100	;'d'
   277  000F60  20                 	db	32
   278  000F61  3D                 	db	61	;'='
   279  000F62  20                 	db	32
   280  000F63  25                 	db	37
   281  000F64  64                 	db	100	;'d'
   282  000F65  20                 	db	32
   283  000F66  0A                 	db	10
   284  000F67  0D                 	db	13
   285  000F68  00                 	db	0
   286  0000                     
   287                           ; #config settings
   288  000F69  00                 	db	0	; dummy byte at the end
   289  0000                     tosu	equ	0xFFF
   290                           tosh	equ	0xFFE
   291                           tosl	equ	0xFFD
   292                           pclath	equ	0xFFA
   293                           tblptru	equ	0xFF8
   294                           tblptrh	equ	0xFF7
   295                           tblptrl	equ	0xFF6
   296                           tablat	equ	0xFF5
   297                           prodl	equ	0xFF3
   298                           intcon	equ	0xFF2
   299                           wreg	equ	0xFE8
   300                           postinc2	equ	0xFDE
   301                           postdec2	equ	0xFDD
   302                           fsr2h	equ	0xFDA
   303                           fsr2l	equ	0xFD9
   304                           status	equ	0xFD8
   305                           
   306                           	psect	nvBANK0
   307  000076                     __pnvBANK0:
   308                           	opt stack 0
   309  000076                     _CCP1_CompareInterruptHandler:
   310                           	opt stack 0
   311  000076                     	ds	2
   312  000078                     _TMR4_InterruptHandler:
   313                           	opt stack 0
   314  000078                     	ds	2
   315  00007A                     _timer1ReloadVal:
   316                           	opt stack 0
   317  00007A                     	ds	2
   318  0000                     _CLC1CON	set	3623
   319  0000                     _CLC1GLS3	set	3632
   320  0000                     _CLC1GLS2	set	3631
   321  0000                     _CLC1GLS1	set	3630
   322  0000                     _CLC1GLS0	set	3629
   323  0000                     _CLC1SEL3	set	3628
   324  0000                     _CLC1SEL2	set	3627
   325  0000                     _CLC1SEL1	set	3626
   326  0000                     _CLC1SEL0	set	3625
   327  0000                     _CLC1POL	set	3624
   328  0000                     _PIR4bits	set	3785
   329  0000                     _PIE4bits	set	3777
   330  0000                     _PIR5bits	set	3786
   331  0000                     _PIE5bits	set	3778
   332  0000                     _PIR3bits	set	3784
   333  0000                     _RC6PPS	set	3832
   334  0000                     _RD1PPS	set	3835
   335  0000                     _RD3PPS	set	3837
   336  0000                     _RB0PPS	set	3818
   337  0000                     _CWGINPPS	set	3756
   338  0000                     _CLC1PPS	set	3615
   339  0000                     _RD2PPS	set	3836
   340  0000                     _PMD5	set	3809
   341  0000                     _PMD4	set	3808
   342  0000                     _PMD3	set	3807
   343  0000                     _PMD2	set	3806
   344  0000                     _PMD1	set	3805
   345  0000                     _PMD0	set	3804
   346  0000                     _OSCTUNE	set	3800
   347  0000                     _OSCFRQ	set	3801
   348  0000                     _OSCEN	set	3799
   349  0000                     _OSCCON3	set	3797
   350  0000                     _OSCCON1	set	3795
   351  0000                     _PIE6bits	set	3779
   352  0000                     _PIR6bits	set	3787
   353  0000                     _INLVLBbits	set	3856
   354  0000                     _CWG1AS0bits	set	3905
   355  0000                     _CWG1CON0bits	set	3903
   356  0000                     _CWG1CON0	set	3903
   357  0000                     _CWG1ISM	set	3900
   358  0000                     _CWG1CLKCON	set	3899
   359  0000                     _CWG1STR	set	3907
   360  0000                     _CWG1AS1	set	3906
   361  0000                     _CWG1AS0	set	3905
   362  0000                     _CWG1DBF	set	3902
   363  0000                     _CWG1DBR	set	3901
   364  0000                     _CWG1CON1	set	3904
   365  0000                     _SLRCONE	set	3878
   366  0000                     _SLRCOND	set	3870
   367  0000                     _SLRCONC	set	3865
   368  0000                     _SLRCONB	set	3857
   369  0000                     _SLRCONA	set	3849
   370  0000                     _ODCOND	set	3871
   371  0000                     _ODCONC	set	3866
   372  0000                     _ODCONB	set	3858
   373  0000                     _ODCONA	set	3850
   374  0000                     _ODCONE	set	3879
   375  0000                     _WPUC	set	3867
   376  0000                     _WPUA	set	3851
   377  0000                     _WPUB	set	3859
   378  0000                     _WPUE	set	3880
   379  0000                     _WPUD	set	3872
   380  0000                     _ANSELA	set	3852
   381  0000                     _ANSELE	set	3881
   382  0000                     _ANSELB	set	3860
   383  0000                     _ANSELC	set	3868
   384  0000                     _ANSELD	set	3873
   385  0000                     _ADACQ	set	3927
   386  0000                     _ADCON0	set	3931
   387  0000                     _ADCLK	set	3922
   388  0000                     _ADACT	set	3921
   389  0000                     _ADREF	set	3923
   390  0000                     _ADCON3	set	3926
   391  0000                     _ADCON2	set	3925
   392  0000                     _ADCON1	set	3924
   393  0000                     _ADCAP	set	3928
   394  0000                     _ADPCH	set	3930
   395  0000                     _PORTCbits	set	3982
   396  0000                     _PORTBbits	set	3981
   397  0000                     _LATAbits	set	3970
   398  0000                     _PR4	set	4021
   399  0000                     _T4CONbits	set	4022
   400  0000                     _T4CON	set	4022
   401  0000                     _T4TMR	set	4020
   402  0000                     _T4PR	set	4021
   403  0000                     _T4RST	set	4025
   404  0000                     _T4HLT	set	4023
   405  0000                     _T4CLKCON	set	4024
   406  0000                     _T2CON	set	4028
   407  0000                     _T2TMR	set	4026
   408  0000                     _T2PR	set	4027
   409  0000                     _T2RST	set	4031
   410  0000                     _T2HLT	set	4029
   411  0000                     _T2CLKCON	set	4030
   412  0000                     _CCPR2L	set	4005
   413  0000                     _CCPR2H	set	4006
   414  0000                     _CCP2CON	set	4007
   415  0000                     _NVMCON2	set	3969
   416  0000                     _NVMCON0bits	set	3967
   417  0000                     _NVMDATL	set	3964
   418  0000                     _NVMCON1bits	set	3968
   419  0000                     _NVMADRU	set	3963
   420  0000                     _NVMADRH	set	3962
   421  0000                     _NVMADRL	set	3961
   422  0000                     _T1CONbits	set	4046
   423  0000                     _T1CON	set	4046
   424  0000                     _TMR1L	set	4044
   425  0000                     _TMR1H	set	4045
   426  0000                     _T1CLK	set	4049
   427  0000                     _T1GATE	set	4048
   428  0000                     _T1GCON	set	4047
   429  0000                     _INTCONbits	set	4082
   430  0000                     _TX1REG	set	3993
   431  0000                     _SP1BRGH	set	3995
   432  0000                     _SP1BRGL	set	3994
   433  0000                     _TX1STA	set	3997
   434  0000                     _RC1STA	set	3996
   435  0000                     _BAUD1CON	set	3998
   436  0000                     _TRISD	set	3978
   437  0000                     _TRISC	set	3977
   438  0000                     _TRISB	set	3976
   439  0000                     _TRISA	set	3975
   440  0000                     _TRISE	set	3979
   441  0000                     _LATC	set	3972
   442  0000                     _LATB	set	3971
   443  0000                     _LATA	set	3970
   444  0000                     _LATD	set	3973
   445  0000                     _LATE	set	3974
   446  0000                     _CCPTMRSbits	set	4013
   447  0000                     _CCPR1L	set	4009
   448  0000                     _CCPR1H	set	4010
   449  0000                     _CCP1CON	set	4011
   450  0000                     _ADSTAT	set	3936
   451  0000                     _ADRPT	set	3937
   452  0000                     _ADSTPTH	set	3940
   453  0000                     _ADSTPTL	set	3939
   454  0000                     _ADUTHH	set	3944
   455  0000                     _ADUTHL	set	3943
   456  0000                     _ADLTHH	set	3942
   457  0000                     _ADLTHL	set	3941
   458                           tosu	equ	0xFFF
   459                           tosh	equ	0xFFE
   460                           tosl	equ	0xFFD
   461                           pclath	equ	0xFFA
   462                           tblptru	equ	0xFF8
   463                           tblptrh	equ	0xFF7
   464                           tblptrl	equ	0xFF6
   465                           tablat	equ	0xFF5
   466                           prodl	equ	0xFF3
   467                           intcon	equ	0xFF2
   468                           wreg	equ	0xFE8
   469                           postinc2	equ	0xFDE
   470                           postdec2	equ	0xFDD
   471                           fsr2h	equ	0xFDA
   472                           fsr2l	equ	0xFD9
   473                           status	equ	0xFD8
   474                           
   475                           	psect	cinit
   476  001BFC                     __pcinit:
   477                           	opt stack 0
   478  001BFC                     start_initialization:
   479                           	opt stack 0
   480  001BFC                     __initialization:
   481                           	opt stack 0
   482                           
   483                           ; Initialize objects allocated to BANK0 (2 bytes)
   484                           ; load TBLPTR registers with __pidataBANK0
   485  001BFC  0EF8               	movlw	low __pidataBANK0
   486  001BFE  6EF6               	movwf	tblptrl,c
   487  001C00  0E1F               	movlw	high __pidataBANK0
   488  001C02  6EF7               	movwf	tblptrh,c
   489  001C04  0E00               	movlw	low (__pidataBANK0 shr (0+16))
   490  001C06  6EF8               	movwf	tblptru,c
   491  001C08  0009               	tblrd		*+	;fetch initializer
   492  001C0A  CFF5 F081          	movff	tablat,__pdataBANK0
   493  001C0E  0009               	tblrd		*+	;fetch initializer
   494  001C10  CFF5 F082          	movff	tablat,__pdataBANK0+1
   495                           
   496                           ; Clear objects allocated to BANK0 (22 bytes)
   497  001C14  EE00  F060         	lfsr	0,__pbssBANK0
   498  001C18  0E16               	movlw	22
   499  001C1A                     clear_0:
   500  001C1A  6AEE               	clrf	postinc0,c
   501  001C1C  06E8               	decf	wreg,f,c
   502  001C1E  E1FD               	bnz	clear_0
   503                           
   504                           ; Clear objects allocated to COMRAM (3 bytes)
   505  001C20  6A5B               	clrf	(__pbssCOMRAM+2)& (0+255),c
   506  001C22  6A5A               	clrf	(__pbssCOMRAM+1)& (0+255),c
   507  001C24  6A59               	clrf	__pbssCOMRAM& (0+255),c
   508  001C26                     end_of_initialization:
   509                           	opt stack 0
   510  001C26                     __end_of__initialization:
   511                           	opt stack 0
   512  001C26  905C               	bcf	int$flags,0,c	;clear compiler interrupt flag (level 1)
   513  001C28  925C               	bcf	int$flags,1,c	;clear compiler interrupt flag (level 2)
   514  001C2A  0100               	movlb	0
   515  001C2C  EF04  F00B         	goto	_main	;jump to C main() function
   516                           tosu	equ	0xFFF
   517                           tosh	equ	0xFFE
   518                           tosl	equ	0xFFD
   519                           pclath	equ	0xFFA
   520                           tblptru	equ	0xFF8
   521                           tblptrh	equ	0xFF7
   522                           tblptrl	equ	0xFF6
   523                           tablat	equ	0xFF5
   524                           prodl	equ	0xFF3
   525                           intcon	equ	0xFF2
   526                           postinc0	equ	0xFEE
   527                           wreg	equ	0xFE8
   528                           postinc2	equ	0xFDE
   529                           postdec2	equ	0xFDD
   530                           fsr2h	equ	0xFDA
   531                           fsr2l	equ	0xFD9
   532                           status	equ	0xFD8
   533                           
   534                           	psect	bssCOMRAM
   535  000059                     __pbssCOMRAM:
   536                           	opt stack 0
   537  000059                     _totalAngleTurned:
   538                           	opt stack 0
   539  000059                     	ds	2
   540  00005B                     _reverseOrigin:
   541                           	opt stack 0
   542  00005B                     	ds	1
   543                           tosu	equ	0xFFF
   544                           tosh	equ	0xFFE
   545                           tosl	equ	0xFFD
   546                           pclath	equ	0xFFA
   547                           tblptru	equ	0xFF8
   548                           tblptrh	equ	0xFF7
   549                           tblptrl	equ	0xFF6
   550                           tablat	equ	0xFF5
   551                           prodl	equ	0xFF3
   552                           intcon	equ	0xFF2
   553                           postinc0	equ	0xFEE
   554                           wreg	equ	0xFE8
   555                           postinc2	equ	0xFDE
   556                           postdec2	equ	0xFDD
   557                           fsr2h	equ	0xFDA
   558                           fsr2l	equ	0xFD9
   559                           status	equ	0xFD8
   560                           
   561                           	psect	bssBANK0
   562  000060                     __pbssBANK0:
   563                           	opt stack 0
   564  000060                     _TMR1_GateInterruptHandler:
   565                           	opt stack 0
   566  000060                     	ds	2
   567  000062                     _expectedRippleCount:
   568                           	opt stack 0
   569  000062                     	ds	2
   570  000064                     _actualRippleCount:
   571                           	opt stack 0
   572  000064                     	ds	2
   573  000066                     _compareLoadValue:
   574                           	opt stack 0
   575  000066                     	ds	2
   576  000068                     _angleTurned:
   577                           	opt stack 0
   578  000068                     	ds	2
   579  00006A                     _angleDesired:
   580                           	opt stack 0
   581  00006A                     	ds	2
   582  00006C                     _reverseBtnPressed:
   583                           	opt stack 0
   584  00006C                     	ds	1
   585  00006D                     _forwardBtnPressed:
   586                           	opt stack 0
   587  00006D                     	ds	1
   588  00006E                     _endBtnPressed:
   589                           	opt stack 0
   590  00006E                     	ds	1
   591  00006F                     _homeBtnPressed:
   592                           	opt stack 0
   593  00006F                     	ds	1
   594  000070                     _motorStalled:
   595                           	opt stack 0
   596  000070                     	ds	1
   597  000071                     _dummy:
   598                           	opt stack 0
   599  000071                     	ds	1
   600  000072                     _reverseDirection:
   601                           	opt stack 0
   602  000072                     	ds	1
   603  000073                     _forwardDirection:
   604                           	opt stack 0
   605  000073                     	ds	1
   606  000074                     _getCountDone:
   607                           	opt stack 0
   608  000074                     	ds	1
   609  000075                     _inputSet:
   610                           	opt stack 0
   611  000075                     	ds	1
   612                           tosu	equ	0xFFF
   613                           tosh	equ	0xFFE
   614                           tosl	equ	0xFFD
   615                           pclath	equ	0xFFA
   616                           tblptru	equ	0xFF8
   617                           tblptrh	equ	0xFF7
   618                           tblptrl	equ	0xFF6
   619                           tablat	equ	0xFF5
   620                           prodl	equ	0xFF3
   621                           intcon	equ	0xFF2
   622                           postinc0	equ	0xFEE
   623                           wreg	equ	0xFE8
   624                           postinc2	equ	0xFDE
   625                           postdec2	equ	0xFDD
   626                           fsr2h	equ	0xFDA
   627                           fsr2l	equ	0xFD9
   628                           status	equ	0xFD8
   629                           
   630                           	psect	dataBANK0
   631  000081                     __pdataBANK0:
   632                           	opt stack 0
   633  000081                     _remainingAngle:
   634                           	opt stack 0
   635  000081                     	ds	2
   636                           tosu	equ	0xFFF
   637                           tosh	equ	0xFFE
   638                           tosl	equ	0xFFD
   639                           pclath	equ	0xFFA
   640                           tblptru	equ	0xFF8
   641                           tblptrh	equ	0xFF7
   642                           tblptrl	equ	0xFF6
   643                           tablat	equ	0xFF5
   644                           prodl	equ	0xFF3
   645                           intcon	equ	0xFF2
   646                           postinc0	equ	0xFEE
   647                           wreg	equ	0xFE8
   648                           postinc2	equ	0xFDE
   649                           postdec2	equ	0xFDD
   650                           fsr2h	equ	0xFDA
   651                           fsr2l	equ	0xFD9
   652                           status	equ	0xFD8
   653                           
   654                           	psect	cstackBANK0
   655  00007C                     __pcstackBANK0:
   656                           	opt stack 0
   657  00007C                     ??_CheckHomeButton:
   658  00007C                     ??_CheckEndButton:
   659  00007C                     _ReadInput$3519:
   660                           	opt stack 0
   661                           
   662                           ; 3 bytes @ 0x0
   663  00007C                     	ds	3
   664  00007F                     ??_main:
   665                           
   666                           ; 1 bytes @ 0x3
   667  00007F                     	ds	2
   668                           tosu	equ	0xFFF
   669                           tosh	equ	0xFFE
   670                           tosl	equ	0xFFD
   671                           pclath	equ	0xFFA
   672                           tblptru	equ	0xFF8
   673                           tblptrh	equ	0xFF7
   674                           tblptrl	equ	0xFF6
   675                           tablat	equ	0xFF5
   676                           prodl	equ	0xFF3
   677                           intcon	equ	0xFF2
   678                           postinc0	equ	0xFEE
   679                           wreg	equ	0xFE8
   680                           postinc2	equ	0xFDE
   681                           postdec2	equ	0xFDD
   682                           fsr2h	equ	0xFDA
   683                           fsr2l	equ	0xFD9
   684                           status	equ	0xFD8
   685                           
   686                           	psect	cstackCOMRAM
   687  000001                     __pcstackCOMRAM:
   688                           	opt stack 0
   689  000001                     ??_INTERRUPT_InterruptManager:
   690  000001                     
   691                           ; 1 bytes @ 0x0
   692  000001                     	ds	2
   693  000003                     ??_TMR1_Initialize:
   694  000003                     ??_CompareLoadValue:
   695  000003                     ?_TMR1_ReadTimer:
   696                           	opt stack 0
   697  000003                     ?___lwdiv:
   698                           	opt stack 0
   699  000003                     ?___ftpack:
   700                           	opt stack 0
   701  000003                     EUSART1_Write@txData:
   702                           	opt stack 0
   703  000003                     DATAEE_WriteByte@bData:
   704                           	opt stack 0
   705  000003                     DATAEE_ReadByte@bAdd:
   706                           	opt stack 0
   707  000003                     TMR4_Period8BitSet@periodVal:
   708                           	opt stack 0
   709  000003                     CCP1_SetCompareCount@compareCount:
   710                           	opt stack 0
   711  000003                     TMR1_WriteTimer@timerVal:
   712                           	opt stack 0
   713  000003                     TMR4_SetInterruptHandler@InterruptHandler:
   714                           	opt stack 0
   715  000003                     CCP1_CompareSetInterruptHandler@CompareInterruptHandler:
   716                           	opt stack 0
   717  000003                     ___lwdiv@dividend:
   718                           	opt stack 0
   719  000003                     ___ftpack@arg:
   720                           	opt stack 0
   721  000003                     frexp@value:
   722                           	opt stack 0
   723                           
   724                           ; 3 bytes @ 0x2
   725  000003                     	ds	1
   726  000004                     putch@txData:
   727                           	opt stack 0
   728  000004                     DATAEE_WriteByte@bAdd:
   729                           	opt stack 0
   730                           
   731                           ; 1 bytes @ 0x3
   732  000004                     	ds	1
   733  000005                     ??_TMR1_ReadTimer:
   734  000005                     DATAEE_WriteByte@GIEBitValue:
   735                           	opt stack 0
   736  000005                     CCP1_SetCompareCount@module:
   737                           	opt stack 0
   738  000005                     ___lwdiv@divisor:
   739                           	opt stack 0
   740                           
   741                           ; 2 bytes @ 0x4
   742  000005                     	ds	1
   743  000006                     StorePosition@writeByteLSB:
   744                           	opt stack 0
   745  000006                     ___ftpack@exp:
   746                           	opt stack 0
   747  000006                     frexp@eptr:
   748                           	opt stack 0
   749                           
   750                           ; 1 bytes @ 0x5
   751  000006                     	ds	1
   752  000007                     ??_CheckForwardButton:
   753  000007                     ??_CheckReverseButton:
   754  000007                     ??_frexp:
   755  000007                     StorePosition@writeByteMSB:
   756                           	opt stack 0
   757  000007                     ___ftpack@sign:
   758                           	opt stack 0
   759  000007                     TMR1_ReadTimer@readVal:
   760                           	opt stack 0
   761  000007                     ___lwdiv@quotient:
   762                           	opt stack 0
   763                           
   764                           ; 2 bytes @ 0x6
   765  000007                     	ds	1
   766  000008                     ??___ftpack:
   767                           
   768                           ; 1 bytes @ 0x7
   769  000008                     	ds	1
   770  000009                     TMR1_ReadTimer@readValHigh:
   771                           	opt stack 0
   772  000009                     ___lwdiv@counter:
   773                           	opt stack 0
   774                           
   775                           ; 1 bytes @ 0x8
   776  000009                     	ds	1
   777  00000A                     ?___lwmod:
   778                           	opt stack 0
   779  00000A                     TMR1_ReadTimer@readValLow:
   780                           	opt stack 0
   781  00000A                     ___lwmod@dividend:
   782                           	opt stack 0
   783                           
   784                           ; 2 bytes @ 0x9
   785  00000A                     	ds	1
   786  00000B                     ?___lwtoft:
   787                           	opt stack 0
   788  00000B                     ___lwtoft@c:
   789                           	opt stack 0
   790                           
   791                           ; 2 bytes @ 0xA
   792  00000B                     	ds	1
   793  00000C                     ___lwmod@divisor:
   794                           	opt stack 0
   795                           
   796                           ; 2 bytes @ 0xB
   797  00000C                     	ds	2
   798  00000E                     ?___ftadd:
   799                           	opt stack 0
   800  00000E                     ___lwmod@counter:
   801                           	opt stack 0
   802  00000E                     ___ftadd@f1:
   803                           	opt stack 0
   804                           
   805                           ; 3 bytes @ 0xD
   806  00000E                     	ds	1
   807  00000F                     ?_printf:
   808                           	opt stack 0
   809  00000F                     printf@f:
   810                           	opt stack 0
   811                           
   812                           ; 1 bytes @ 0xE
   813  00000F                     	ds	2
   814  000011                     ___ftadd@f2:
   815                           	opt stack 0
   816                           
   817                           ; 3 bytes @ 0x10
   818  000011                     	ds	1
   819  000012                     ??_printf:
   820                           
   821                           ; 1 bytes @ 0x11
   822  000012                     	ds	1
   823  000013                     printf@ap:
   824                           	opt stack 0
   825                           
   826                           ; 1 bytes @ 0x12
   827  000013                     	ds	1
   828  000014                     ??___ftadd:
   829  000014                     printf@flag:
   830                           	opt stack 0
   831                           
   832                           ; 1 bytes @ 0x13
   833  000014                     	ds	1
   834  000015                     printf@prec:
   835                           	opt stack 0
   836                           
   837                           ; 1 bytes @ 0x14
   838  000015                     	ds	1
   839  000016                     printf@val:
   840                           	opt stack 0
   841                           
   842                           ; 2 bytes @ 0x15
   843  000016                     	ds	1
   844  000017                     ___ftadd@sign:
   845                           	opt stack 0
   846                           
   847                           ; 1 bytes @ 0x16
   848  000017                     	ds	1
   849  000018                     printf@c:
   850                           	opt stack 0
   851  000018                     ___ftadd@exp2:
   852                           	opt stack 0
   853                           
   854                           ; 1 bytes @ 0x17
   855  000018                     	ds	1
   856  000019                     ??_ReadMotorPositionFromEEPROM:
   857  000019                     ___ftadd@exp1:
   858                           	opt stack 0
   859                           
   860                           ; 1 bytes @ 0x18
   861  000019                     	ds	1
   862  00001A                     ?___fttol:
   863                           	opt stack 0
   864  00001A                     ___fttol@f1:
   865                           	opt stack 0
   866                           
   867                           ; 3 bytes @ 0x19
   868  00001A                     	ds	1
   869  00001B                     ReadMotorPositionFromEEPROM@readByteMSB:
   870                           	opt stack 0
   871                           
   872                           ; 2 bytes @ 0x1A
   873  00001B                     	ds	2
   874  00001D                     ReadMotorPositionFromEEPROM@readByteLSB:
   875                           	opt stack 0
   876                           
   877                           ; 1 bytes @ 0x1C
   878  00001D                     	ds	1
   879  00001E                     ??___fttol:
   880  00001E                     ReadMotorPositionFromEEPROM@actualPosition:
   881                           	opt stack 0
   882                           
   883                           ; 2 bytes @ 0x1D
   884  00001E                     	ds	5
   885  000023                     ___fttol@sign1:
   886                           	opt stack 0
   887                           
   888                           ; 1 bytes @ 0x22
   889  000023                     	ds	1
   890  000024                     ___fttol@lval:
   891                           	opt stack 0
   892                           
   893                           ; 4 bytes @ 0x23
   894  000024                     	ds	4
   895  000028                     ___fttol@exp1:
   896                           	opt stack 0
   897                           
   898                           ; 1 bytes @ 0x27
   899  000028                     	ds	1
   900  000029                     ?___altoft:
   901                           	opt stack 0
   902  000029                     ___altoft@c:
   903                           	opt stack 0
   904                           
   905                           ; 4 bytes @ 0x28
   906  000029                     	ds	4
   907  00002D                     ??___altoft:
   908                           
   909                           ; 1 bytes @ 0x2C
   910  00002D                     	ds	4
   911  000031                     ___altoft@exp:
   912                           	opt stack 0
   913                           
   914                           ; 1 bytes @ 0x30
   915  000031                     	ds	1
   916  000032                     ___altoft@sign:
   917                           	opt stack 0
   918                           
   919                           ; 1 bytes @ 0x31
   920  000032                     	ds	1
   921  000033                     ?_trunc:
   922                           	opt stack 0
   923  000033                     trunc@x:
   924                           	opt stack 0
   925                           
   926                           ; 3 bytes @ 0x32
   927  000033                     	ds	3
   928  000036                     trunc@i:
   929                           	opt stack 0
   930                           
   931                           ; 3 bytes @ 0x35
   932  000036                     	ds	3
   933  000039                     trunc@expon:
   934                           	opt stack 0
   935                           
   936                           ; 2 bytes @ 0x38
   937  000039                     	ds	2
   938  00003B                     ?___ftsub:
   939                           	opt stack 0
   940  00003B                     ___ftsub@f1:
   941                           	opt stack 0
   942                           
   943                           ; 3 bytes @ 0x3A
   944  00003B                     	ds	3
   945  00003E                     ___ftsub@f2:
   946                           	opt stack 0
   947                           
   948                           ; 3 bytes @ 0x3D
   949  00003E                     	ds	3
   950  000041                     ?_round:
   951                           	opt stack 0
   952  000041                     round@x:
   953                           	opt stack 0
   954                           
   955                           ; 3 bytes @ 0x40
   956  000041                     	ds	3
   957  000044                     round@f:
   958                           	opt stack 0
   959                           
   960                           ; 3 bytes @ 0x43
   961  000044                     	ds	3
   962  000047                     ?___ftdiv:
   963                           	opt stack 0
   964  000047                     ?___ftmul:
   965                           	opt stack 0
   966  000047                     ___ftdiv@f1:
   967                           	opt stack 0
   968  000047                     ___ftmul@f1:
   969                           	opt stack 0
   970                           
   971                           ; 3 bytes @ 0x46
   972  000047                     	ds	3
   973  00004A                     ___ftdiv@f2:
   974                           	opt stack 0
   975  00004A                     ___ftmul@f2:
   976                           	opt stack 0
   977                           
   978                           ; 3 bytes @ 0x49
   979  00004A                     	ds	3
   980  00004D                     ??___ftdiv:
   981  00004D                     ??___ftmul:
   982                           
   983                           ; 1 bytes @ 0x4C
   984  00004D                     	ds	3
   985  000050                     ___ftdiv@cntr:
   986                           	opt stack 0
   987  000050                     ___ftmul@exp:
   988                           	opt stack 0
   989                           
   990                           ; 1 bytes @ 0x4F
   991  000050                     	ds	1
   992  000051                     ___ftdiv@f3:
   993                           	opt stack 0
   994  000051                     ___ftmul@f3_as_product:
   995                           	opt stack 0
   996                           
   997                           ; 3 bytes @ 0x50
   998  000051                     	ds	3
   999  000054                     ___ftdiv@exp:
  1000                           	opt stack 0
  1001  000054                     ___ftmul@cntr:
  1002                           	opt stack 0
  1003                           
  1004                           ; 1 bytes @ 0x53
  1005  000054                     	ds	1
  1006  000055                     ___ftdiv@sign:
  1007                           	opt stack 0
  1008  000055                     ___ftmul@sign:
  1009                           	opt stack 0
  1010                           
  1011                           ; 1 bytes @ 0x54
  1012  000055                     	ds	1
  1013  000056                     _ExpectedRippleCountRemainingAngle$3520:
  1014                           	opt stack 0
  1015  000056                     _ExpectedRippleCountToHome$3521:
  1016                           	opt stack 0
  1017  000056                     _ExpectedRippleCountToEndPoint$3522:
  1018                           	opt stack 0
  1019  000056                     _GetAngleTurned$3523:
  1020                           	opt stack 0
  1021                           
  1022                           ; 3 bytes @ 0x55
  1023  000056                     	ds	3
  1024  000059                     tosu	equ	0xFFF
  1025                           tosh	equ	0xFFE
  1026                           tosl	equ	0xFFD
  1027                           pclath	equ	0xFFA
  1028                           tblptru	equ	0xFF8
  1029                           tblptrh	equ	0xFF7
  1030                           tblptrl	equ	0xFF6
  1031                           tablat	equ	0xFF5
  1032                           prodl	equ	0xFF3
  1033                           intcon	equ	0xFF2
  1034                           postinc0	equ	0xFEE
  1035                           wreg	equ	0xFE8
  1036                           postinc2	equ	0xFDE
  1037                           postdec2	equ	0xFDD
  1038                           fsr2h	equ	0xFDA
  1039                           fsr2l	equ	0xFD9
  1040                           status	equ	0xFD8
  1041                           
  1042                           ; 1 bytes @ 0x58
  1043 ;;
  1044 ;;Main: autosize = 0, tempsize = 2, incstack = 0, save=0
  1045 ;;
  1046 ;; *************** function _main *****************
  1047 ;; Defined at:
  1048 ;;		line 52 in file "main.c"
  1049 ;; Parameters:    Size  Location     Type
  1050 ;;		None
  1051 ;; Auto vars:     Size  Location     Type
  1052 ;;		None
  1053 ;; Return value:  Size  Location     Type
  1054 ;;                  1    wreg      void 
  1055 ;; Registers used:
  1056 ;;		wreg, fsr2l, fsr2h, status,2, status,0, tblptrl, tblptrh, tblptru, prodl, prodh, cstack
  1057 ;; Tracked objects:
  1058 ;;		On entry : 0/0
  1059 ;;		On exit  : 30/0
  1060 ;;		Unchanged: 0/0
  1061 ;; Data sizes:     COMRAM   BANK0   BANK1   BANK2   BANK3   BANK4   BANK5   BANK6   BANK7   BANK8   BANK9  BANK10  BANK1
      +1  BANK12  BANK14
  1062 ;;      Params:         0       0       0       0       0       0       0       0       0       0       0       0       
      +0       0       0
  1063 ;;      Locals:         0       0       0       0       0       0       0       0       0       0       0       0       
      +0       0       0
  1064 ;;      Temps:          0       2       0       0       0       0       0       0       0       0       0       0       
      +0       0       0
  1065 ;;      Totals:         0       2       0       0       0       0       0       0       0       0       0       0       
      +0       0       0
  1066 ;;Total ram usage:        2 bytes
  1067 ;; Hardware stack levels required when called:   11
  1068 ;; This function calls:
  1069 ;;		_CCP1_CompareSetInterruptHandler
  1070 ;;		_CWG_AutoShutdownEventSet
  1071 ;;		_CheckEndButton
  1072 ;;		_CheckForwardButton
  1073 ;;		_CheckHomeButton
  1074 ;;		_CheckReverseButton
  1075 ;;		_GetAngleTurned
  1076 ;;		_MotorPosition
  1077 ;;		_ReadInput
  1078 ;;		_ReadMotorPositionFromEEPROM
  1079 ;;		_ResumeMotor
  1080 ;;		_SYSTEM_Initialize
  1081 ;;		_StallDetection
  1082 ;; This function is called by:
  1083 ;;		Startup code after reset
  1084 ;; This function uses a non-reentrant model
  1085 ;;
  1086                           
  1087                           	psect	text0
  1088  001608                     __ptext0:
  1089                           	opt stack 0
  1090  001608                     _main:
  1091                           	opt stack 20
  1092                           
  1093                           ;main.c: 54: SYSTEM_Initialize();
  1094                           
  1095                           ;incstack = 0
  1096  001608  EC18  F00E         	call	_SYSTEM_Initialize	;wreg free
  1097                           
  1098                           ; BSR set to: 15
  1099  00160C  9110               	bcf	16,0,b	;volatile
  1100                           
  1101                           ; BSR set to: 15
  1102                           ;main.c: 56: CWG_AutoShutdownEventSet();
  1103  00160E  ECF2  F00F         	call	_CWG_AutoShutdownEventSet	;wreg free
  1104                           
  1105                           ; BSR set to: 15
  1106  001612  9E82               	bcf	3970,7,c	;volatile
  1107                           
  1108                           ; BSR set to: 15
  1109                           ;main.c: 59: (INTCONbits.GIE = 1);
  1110  001614  8EF2               	bsf	intcon,7,c	;volatile
  1111                           
  1112                           ; BSR set to: 15
  1113                           ;main.c: 60: (INTCONbits.PEIE = 1);
  1114  001616  8CF2               	bsf	intcon,6,c	;volatile
  1115                           
  1116                           ; BSR set to: 15
  1117                           ;main.c: 62: CCP1_CompareSetInterruptHandler(Compare_ISR);
  1118  001618  0E2A               	movlw	low _Compare_ISR
  1119  00161A  6E03               	movwf	CCP1_CompareSetInterruptHandler@CompareInterruptHandler,c
  1120  00161C  0E1F               	movlw	high _Compare_ISR
  1121  00161E  6E04               	movwf	CCP1_CompareSetInterruptHandler@CompareInterruptHandler+1,c
  1122  001620  ECE1  F00F         	call	_CCP1_CompareSetInterruptHandler	;wreg free
  1123                           
  1124                           ; BSR set to: 15
  1125                           ;main.c: 63: StallDetection();
  1126  001624  ECCA  F00F         	call	_StallDetection	;wreg free
  1127  001628                     l4270:
  1128                           
  1129                           ;main.c: 66: {
  1130                           ;main.c: 67: ReadMotorPositionFromEEPROM();
  1131  001628  EC17  F00D         	call	_ReadMotorPositionFromEEPROM	;wreg free
  1132                           
  1133                           ;main.c: 68: ReadInput();
  1134  00162C  ECEC  F00B         	call	_ReadInput	;wreg free
  1135                           
  1136                           ; BSR set to: 0
  1137                           ;main.c: 70: CheckForwardButton();
  1138  001630  EC4C  F00E         	call	_CheckForwardButton	;wreg free
  1139                           
  1140                           ;main.c: 71: CheckReverseButton();
  1141  001634  ECAD  F00D         	call	_CheckReverseButton	;wreg free
  1142                           
  1143                           ;main.c: 72: CheckHomeButton();
  1144  001638  EC83  F00C         	call	_CheckHomeButton	;wreg free
  1145                           
  1146                           ;main.c: 73: CheckEndButton();
  1147  00163C  ECA9  F00C         	call	_CheckEndButton	;wreg free
  1148                           
  1149                           ;main.c: 75: if(getCountDone)
  1150  001640  0100               	movlb	0	; () banked
  1151  001642  5174               	movf	_getCountDone& (0+255),w,b
  1152  001644  E006               	bz	l4288
  1153                           
  1154                           ; BSR set to: 0
  1155                           ;main.c: 76: {
  1156                           ;main.c: 77: getCountDone = 0;
  1157  001646  6B74               	clrf	_getCountDone& (0+255),b
  1158                           
  1159                           ; BSR set to: 0
  1160                           ;main.c: 78: GetAngleTurned();
  1161  001648  ECEF  F009         	call	_GetAngleTurned	;wreg free
  1162                           
  1163                           ;main.c: 80: MotorPosition();
  1164  00164C  EC51  F00F         	call	_MotorPosition	;wreg free
  1165                           
  1166                           ;main.c: 81: }
  1167  001650  D7EB               	goto	l4270
  1168  001652                     l4288:
  1169                           
  1170                           ; BSR set to: 0
  1171                           ;main.c: 83: else if(motorStalled)
  1172  001652  5170               	movf	_motorStalled& (0+255),w,b
  1173  001654  E0E9               	bz	l4270
  1174                           
  1175                           ; BSR set to: 0
  1176                           ;main.c: 84: {
  1177                           ;main.c: 85: motorStalled = 0;
  1178  001656  6B70               	clrf	_motorStalled& (0+255),b
  1179                           
  1180                           ; BSR set to: 0
  1181                           ;main.c: 86: GetAngleTurned();
  1182  001658  ECEF  F009         	call	_GetAngleTurned	;wreg free
  1183                           
  1184                           ;main.c: 87: MotorPosition();
  1185  00165C  EC51  F00F         	call	_MotorPosition	;wreg free
  1186                           
  1187                           ;main.c: 88: _delay((unsigned long)((5000)*(16000000/4000.0)));
  1188  001660  0E66               	movlw	102
  1189  001662  0100               	movlb	0	; () banked
  1190  001664  6F80               	movwf	(??_main+1)& (0+255),b
  1191  001666  0E76               	movlw	118
  1192  001668  6F7F               	movwf	??_main& (0+255),b
  1193  00166A  0EC1               	movlw	193
  1194  00166C                     u3077:
  1195  00166C  2EE8               	decfsz	wreg,f,c
  1196  00166E  D7FE               	bra	u3077
  1197  001670  2F7F               	decfsz	??_main& (0+255),f,b
  1198  001672  D7FC               	bra	u3077
  1199  001674  2F80               	decfsz	(??_main+1)& (0+255),f,b
  1200  001676  D7FA               	bra	u3077
  1201                           
  1202                           ;main.c: 89: ResumeMotor();
  1203  001678  EC29  F00F         	call	_ResumeMotor	;wreg free
  1204  00167C  D7D5               	goto	l4270
  1205  00167E                     __end_of_main:
  1206                           	opt stack 0
  1207                           tosu	equ	0xFFF
  1208                           tosh	equ	0xFFE
  1209                           tosl	equ	0xFFD
  1210                           pclath	equ	0xFFA
  1211                           tblptru	equ	0xFF8
  1212                           tblptrh	equ	0xFF7
  1213                           tblptrl	equ	0xFF6
  1214                           tablat	equ	0xFF5
  1215                           prodl	equ	0xFF3
  1216                           intcon	equ	0xFF2
  1217                           postinc0	equ	0xFEE
  1218                           wreg	equ	0xFE8
  1219                           postinc2	equ	0xFDE
  1220                           postdec2	equ	0xFDD
  1221                           fsr2h	equ	0xFDA
  1222                           fsr2l	equ	0xFD9
  1223                           status	equ	0xFD8
  1224                           
  1225 ;; *************** function _StallDetection *****************
  1226 ;; Defined at:
  1227 ;;		line 41 in file "stall_detection.c"
  1228 ;; Parameters:    Size  Location     Type
  1229 ;;		None
  1230 ;; Auto vars:     Size  Location     Type
  1231 ;;		None
  1232 ;; Return value:  Size  Location     Type
  1233 ;;                  1    wreg      void 
  1234 ;; Registers used:
  1235 ;;		wreg, status,2, status,0, cstack
  1236 ;; Tracked objects:
  1237 ;;		On entry : 3F/F
  1238 ;;		On exit  : 3E/E
  1239 ;;		Unchanged: 3E/0
  1240 ;; Data sizes:     COMRAM   BANK0   BANK1   BANK2   BANK3   BANK4   BANK5   BANK6   BANK7   BANK8   BANK9  BANK10  BANK1
      +1  BANK12  BANK14
  1241 ;;      Params:         0       0       0       0       0       0       0       0       0       0       0       0       
      +0       0       0
  1242 ;;      Locals:         0       0       0       0       0       0       0       0       0       0       0       0       
      +0       0       0
  1243 ;;      Temps:          0       0       0       0       0       0       0       0       0       0       0       0       
      +0       0       0
  1244 ;;      Totals:         0       0       0       0       0       0       0       0       0       0       0       0       
      +0       0       0
  1245 ;;Total ram usage:        0 bytes
  1246 ;; Hardware stack levels used:    1
  1247 ;; Hardware stack levels required when called:    6
  1248 ;; This function calls:
  1249 ;;		_TMR4_SetInterruptHandler
  1250 ;; This function is called by:
  1251 ;;		_main
  1252 ;; This function uses a non-reentrant model
  1253 ;;
  1254                           
  1255                           	psect	text1
  1256  001F94                     __ptext1:
  1257                           	opt stack 0
  1258  001F94                     _StallDetection:
  1259                           	opt stack 24
  1260                           
  1261                           ; BSR set to: 15
  1262                           ;stall_detection.c: 43: TMR4_SetInterruptHandler(Stall_ISR);
  1263                           
  1264                           ;incstack = 0
  1265  001F94  0E14               	movlw	low _Stall_ISR
  1266  001F96  6E03               	movwf	TMR4_SetInterruptHandler@InterruptHandler,c
  1267  001F98  0E1F               	movlw	high _Stall_ISR
  1268  001F9A  6E04               	movwf	TMR4_SetInterruptHandler@InterruptHandler+1,c
  1269  001F9C  EFDC  F00F         	goto	_TMR4_SetInterruptHandler	;wreg free
  1270  001FA0                     __end_of_StallDetection:
  1271                           	opt stack 0
  1272                           tosu	equ	0xFFF
  1273                           tosh	equ	0xFFE
  1274                           tosl	equ	0xFFD
  1275                           pclath	equ	0xFFA
  1276                           tblptru	equ	0xFF8
  1277                           tblptrh	equ	0xFF7
  1278                           tblptrl	equ	0xFF6
  1279                           tablat	equ	0xFF5
  1280                           prodl	equ	0xFF3
  1281                           intcon	equ	0xFF2
  1282                           postinc0	equ	0xFEE
  1283                           wreg	equ	0xFE8
  1284                           postinc2	equ	0xFDE
  1285                           postdec2	equ	0xFDD
  1286                           fsr2h	equ	0xFDA
  1287                           fsr2l	equ	0xFD9
  1288                           status	equ	0xFD8
  1289                           
  1290 ;; *************** function _SYSTEM_Initialize *****************
  1291 ;; Defined at:
  1292 ;;		line 50 in file "mcc_generated_files/mcc.c"
  1293 ;; Parameters:    Size  Location     Type
  1294 ;;		None
  1295 ;; Auto vars:     Size  Location     Type
  1296 ;;		None
  1297 ;; Return value:  Size  Location     Type
  1298 ;;                  1    wreg      void 
  1299 ;; Registers used:
  1300 ;;		wreg, status,2, status,0, cstack
  1301 ;; Tracked objects:
  1302 ;;		On entry : 0/0
  1303 ;;		On exit  : 3F/F
  1304 ;;		Unchanged: 0/0
  1305 ;; Data sizes:     COMRAM   BANK0   BANK1   BANK2   BANK3   BANK4   BANK5   BANK6   BANK7   BANK8   BANK9  BANK10  BANK1
      +1  BANK12  BANK14
  1306 ;;      Params:         0       0       0       0       0       0       0       0       0       0       0       0       
      +0       0       0
  1307 ;;      Locals:         0       0       0       0       0       0       0       0       0       0       0       0       
      +0       0       0
  1308 ;;      Temps:          0       0       0       0       0       0       0       0       0       0       0       0       
      +0       0       0
  1309 ;;      Totals:         0       0       0       0       0       0       0       0       0       0       0       0       
      +0       0       0
  1310 ;;Total ram usage:        0 bytes
  1311 ;; Hardware stack levels used:    1
  1312 ;; Hardware stack levels required when called:    7
  1313 ;; This function calls:
  1314 ;;		_ADCC_Initialize
  1315 ;;		_CCP1_Initialize
  1316 ;;		_CLC1_Initialize
  1317 ;;		_CWG_Initialize
  1318 ;;		_EUSART1_Initialize
  1319 ;;		_INTERRUPT_Initialize
  1320 ;;		_OSCILLATOR_Initialize
  1321 ;;		_PIN_MANAGER_Initialize
  1322 ;;		_PMD_Initialize
  1323 ;;		_PWM2_Initialize
  1324 ;;		_TMR1_Initialize
  1325 ;;		_TMR2_Initialize
  1326 ;;		_TMR4_Initialize
  1327 ;; This function is called by:
  1328 ;;		_main
  1329 ;; This function uses a non-reentrant model
  1330 ;;
  1331                           
  1332                           	psect	text2
  1333  001C30                     __ptext2:
  1334                           	opt stack 0
  1335  001C30                     _SYSTEM_Initialize:
  1336                           	opt stack 23
  1337                           
  1338                           ;mcc.c: 52: INTERRUPT_Initialize();
  1339                           
  1340                           ;incstack = 0
  1341  001C30  ECEE  F00F         	call	_INTERRUPT_Initialize	;wreg free
  1342                           
  1343                           ;mcc.c: 53: PMD_Initialize();
  1344  001C34  ECB3  F00F         	call	_PMD_Initialize	;wreg free
  1345                           
  1346                           ; BSR set to: 14
  1347                           ;mcc.c: 54: PIN_MANAGER_Initialize();
  1348  001C38  EC7A  F00B         	call	_PIN_MANAGER_Initialize	;wreg free
  1349                           
  1350                           ; BSR set to: 14
  1351                           ;mcc.c: 55: OSCILLATOR_Initialize();
  1352  001C3C  ECBB  F00F         	call	_OSCILLATOR_Initialize	;wreg free
  1353                           
  1354                           ; BSR set to: 14
  1355                           ;mcc.c: 56: CLC1_Initialize();
  1356  001C40  EC1B  F00F         	call	_CLC1_Initialize	;wreg free
  1357                           
  1358                           ; BSR set to: 14
  1359                           ;mcc.c: 57: PWM2_Initialize();
  1360  001C44  ECA0  F00F         	call	_PWM2_Initialize	;wreg free
  1361                           
  1362                           ; BSR set to: 14
  1363                           ;mcc.c: 58: ADCC_Initialize();
  1364  001C48  EC7E  F00E         	call	_ADCC_Initialize	;wreg free
  1365                           
  1366                           ; BSR set to: 15
  1367                           ;mcc.c: 59: CCP1_Initialize();
  1368  001C4C  EC45  F00F         	call	_CCP1_Initialize	;wreg free
  1369                           
  1370                           ; BSR set to: 14
  1371                           ;mcc.c: 60: TMR4_Initialize();
  1372  001C50  EC94  F00E         	call	_TMR4_Initialize	;wreg free
  1373                           
  1374                           ;mcc.c: 61: TMR2_Initialize();
  1375  001C54  EC69  F00F         	call	_TMR2_Initialize	;wreg free
  1376                           
  1377                           ; BSR set to: 14
  1378                           ;mcc.c: 62: TMR1_Initialize();
  1379  001C58  EC32  F00E         	call	_TMR1_Initialize	;wreg free
  1380                           
  1381                           ; BSR set to: 14
  1382                           ;mcc.c: 63: CWG_Initialize();
  1383  001C5C  ECEE  F00E         	call	_CWG_Initialize	;wreg free
  1384                           
  1385                           ; BSR set to: 15
  1386                           ;mcc.c: 64: EUSART1_Initialize();
  1387  001C60  EF74  F00F         	goto	_EUSART1_Initialize	;wreg free
  1388  001C64                     __end_of_SYSTEM_Initialize:
  1389                           	opt stack 0
  1390                           tosu	equ	0xFFF
  1391                           tosh	equ	0xFFE
  1392                           tosl	equ	0xFFD
  1393                           pclath	equ	0xFFA
  1394                           tblptru	equ	0xFF8
  1395                           tblptrh	equ	0xFF7
  1396                           tblptrl	equ	0xFF6
  1397                           tablat	equ	0xFF5
  1398                           prodl	equ	0xFF3
  1399                           intcon	equ	0xFF2
  1400                           postinc0	equ	0xFEE
  1401                           wreg	equ	0xFE8
  1402                           postinc2	equ	0xFDE
  1403                           postdec2	equ	0xFDD
  1404                           fsr2h	equ	0xFDA
  1405                           fsr2l	equ	0xFD9
  1406                           status	equ	0xFD8
  1407                           
  1408 ;; *************** function _TMR4_Initialize *****************
  1409 ;; Defined at:
  1410 ;;		line 64 in file "mcc_generated_files/tmr4.c"
  1411 ;; Parameters:    Size  Location     Type
  1412 ;;		None
  1413 ;; Auto vars:     Size  Location     Type
  1414 ;;		None
  1415 ;; Return value:  Size  Location     Type
  1416 ;;                  1    wreg      void 
  1417 ;; Registers used:
  1418 ;;		wreg, status,2, status,0, cstack
  1419 ;; Tracked objects:
  1420 ;;		On entry : 3F/E
  1421 ;;		On exit  : 3E/E
  1422 ;;		Unchanged: 0/0
  1423 ;; Data sizes:     COMRAM   BANK0   BANK1   BANK2   BANK3   BANK4   BANK5   BANK6   BANK7   BANK8   BANK9  BANK10  BANK1
      +1  BANK12  BANK14
  1424 ;;      Params:         0       0       0       0       0       0       0       0       0       0       0       0       
      +0       0       0
  1425 ;;      Locals:         0       0       0       0       0       0       0       0       0       0       0       0       
      +0       0       0
  1426 ;;      Temps:          0       0       0       0       0       0       0       0       0       0       0       0       
      +0       0       0
  1427 ;;      Totals:         0       0       0       0       0       0       0       0       0       0       0       0       
      +0       0       0
  1428 ;;Total ram usage:        0 bytes
  1429 ;; Hardware stack levels used:    1
  1430 ;; Hardware stack levels required when called:    6
  1431 ;; This function calls:
  1432 ;;		_TMR4_SetInterruptHandler
  1433 ;; This function is called by:
  1434 ;;		_SYSTEM_Initialize
  1435 ;; This function uses a non-reentrant model
  1436 ;;
  1437                           
  1438                           	psect	text3
  1439  001D28                     __ptext3:
  1440                           	opt stack 0
  1441  001D28                     _TMR4_Initialize:
  1442                           	opt stack 23
  1443                           
  1444                           ; BSR set to: 14
  1445                           ;tmr4.c: 69: T4CLKCON = 0x05;
  1446                           
  1447                           ; BSR set to: 15
  1448                           ;incstack = 0
  1449  001D28  0E05               	movlw	5
  1450  001D2A  6EB8               	movwf	4024,c	;volatile
  1451                           
  1452                           ;tmr4.c: 72: T4HLT = 0x04;
  1453  001D2C  0E04               	movlw	4
  1454  001D2E  6EB7               	movwf	4023,c	;volatile
  1455                           
  1456                           ;tmr4.c: 75: T4RST = 0x10;
  1457  001D30  0E10               	movlw	16
  1458  001D32  6EB9               	movwf	4025,c	;volatile
  1459                           
  1460                           ;tmr4.c: 78: T4PR = 0x03;
  1461  001D34  0E03               	movlw	3
  1462  001D36  6EB5               	movwf	4021,c	;volatile
  1463                           
  1464                           ; BSR set to: 14
  1465                           ;tmr4.c: 81: T4TMR = 0x00;
  1466  001D38  6AB4               	clrf	4020,c	;volatile
  1467                           
  1468                           ; BSR set to: 14
  1469                           ;tmr4.c: 84: PIR4bits.TMR4IF = 0;
  1470  001D3A  97C9               	bcf	201,3,b	;volatile
  1471                           
  1472                           ; BSR set to: 14
  1473                           ;tmr4.c: 87: PIE4bits.TMR4IE = 1;
  1474  001D3C  87C1               	bsf	193,3,b	;volatile
  1475                           
  1476                           ; BSR set to: 14
  1477                           ;tmr4.c: 90: TMR4_SetInterruptHandler(TMR4_DefaultInterruptHandler);
  1478  001D3E  0EFA               	movlw	low _TMR4_DefaultInterruptHandler
  1479  001D40  6E03               	movwf	TMR4_SetInterruptHandler@InterruptHandler,c
  1480  001D42  0E1F               	movlw	high _TMR4_DefaultInterruptHandler
  1481  001D44  6E04               	movwf	TMR4_SetInterruptHandler@InterruptHandler+1,c
  1482  001D46  ECDC  F00F         	call	_TMR4_SetInterruptHandler	;wreg free
  1483                           
  1484                           ;tmr4.c: 93: T4CON = 0x70;
  1485  001D4A  0E70               	movlw	112
  1486  001D4C  6EB6               	movwf	4022,c	;volatile
  1487  001D4E  0C70               	retlw	112	;funcret
  1488  001D50                     __end_of_TMR4_Initialize:
  1489                           	opt stack 0
  1490                           tosu	equ	0xFFF
  1491                           tosh	equ	0xFFE
  1492                           tosl	equ	0xFFD
  1493                           pclath	equ	0xFFA
  1494                           tblptru	equ	0xFF8
  1495                           tblptrh	equ	0xFF7
  1496                           tblptrl	equ	0xFF6
  1497                           tablat	equ	0xFF5
  1498                           prodl	equ	0xFF3
  1499                           intcon	equ	0xFF2
  1500                           postinc0	equ	0xFEE
  1501                           wreg	equ	0xFE8
  1502                           postinc2	equ	0xFDE
  1503                           postdec2	equ	0xFDD
  1504                           fsr2h	equ	0xFDA
  1505                           fsr2l	equ	0xFD9
  1506                           status	equ	0xFD8
  1507                           
  1508 ;; *************** function _TMR4_SetInterruptHandler *****************
  1509 ;; Defined at:
  1510 ;;		line 178 in file "mcc_generated_files/tmr4.c"
  1511 ;; Parameters:    Size  Location     Type
  1512 ;;  InterruptHan    2    2[COMRAM] PTR FTN()void 
  1513 ;;		 -> Stall_ISR(1), TMR4_DefaultInterruptHandler(1), 
  1514 ;; Auto vars:     Size  Location     Type
  1515 ;;		None
  1516 ;; Return value:  Size  Location     Type
  1517 ;;                  1    wreg      void 
  1518 ;; Registers used:
  1519 ;;		wreg, status,2, status,0
  1520 ;; Tracked objects:
  1521 ;;		On entry : 3E/F
  1522 ;;		On exit  : 3E/E
  1523 ;;		Unchanged: 3E/0
  1524 ;; Data sizes:     COMRAM   BANK0   BANK1   BANK2   BANK3   BANK4   BANK5   BANK6   BANK7   BANK8   BANK9  BANK10  BANK1
      +1  BANK12  BANK14
  1525 ;;      Params:         2       0       0       0       0       0       0       0       0       0       0       0       
      +0       0       0
  1526 ;;      Locals:         0       0       0       0       0       0       0       0       0       0       0       0       
      +0       0       0
  1527 ;;      Temps:          0       0       0       0       0       0       0       0       0       0       0       0       
      +0       0       0
  1528 ;;      Totals:         2       0       0       0       0       0       0       0       0       0       0       0       
      +0       0       0
  1529 ;;Total ram usage:        2 bytes
  1530 ;; Hardware stack levels used:    1
  1531 ;; Hardware stack levels required when called:    5
  1532 ;; This function calls:
  1533 ;;		Nothing
  1534 ;; This function is called by:
  1535 ;;		_TMR4_Initialize
  1536 ;;		_StallDetection
  1537 ;; This function uses a non-reentrant model
  1538 ;;
  1539                           
  1540                           	psect	text4
  1541  001FB8                     __ptext4:
  1542                           	opt stack 0
  1543  001FB8                     _TMR4_SetInterruptHandler:
  1544                           	opt stack 24
  1545                           
  1546                           ;tmr4.c: 179: TMR4_InterruptHandler = InterruptHandler;
  1547                           
  1548                           ;incstack = 0
  1549  001FB8  C003  F078         	movff	TMR4_SetInterruptHandler@InterruptHandler,_TMR4_InterruptHandler
  1550  001FBC  C004  F079         	movff	TMR4_SetInterruptHandler@InterruptHandler+1,_TMR4_InterruptHandler+1
  1551  001FC0  0012               	return		;funcret
  1552  001FC2                     __end_of_TMR4_SetInterruptHandler:
  1553                           	opt stack 0
  1554                           tosu	equ	0xFFF
  1555                           tosh	equ	0xFFE
  1556                           tosl	equ	0xFFD
  1557                           pclath	equ	0xFFA
  1558                           tblptru	equ	0xFF8
  1559                           tblptrh	equ	0xFF7
  1560                           tblptrl	equ	0xFF6
  1561                           tablat	equ	0xFF5
  1562                           prodl	equ	0xFF3
  1563                           intcon	equ	0xFF2
  1564                           postinc0	equ	0xFEE
  1565                           wreg	equ	0xFE8
  1566                           postinc2	equ	0xFDE
  1567                           postdec2	equ	0xFDD
  1568                           fsr2h	equ	0xFDA
  1569                           fsr2l	equ	0xFD9
  1570                           status	equ	0xFD8
  1571                           
  1572 ;; *************** function _TMR2_Initialize *****************
  1573 ;; Defined at:
  1574 ;;		line 62 in file "mcc_generated_files/tmr2.c"
  1575 ;; Parameters:    Size  Location     Type
  1576 ;;		None
  1577 ;; Auto vars:     Size  Location     Type
  1578 ;;		None
  1579 ;; Return value:  Size  Location     Type
  1580 ;;                  1    wreg      void 
  1581 ;; Registers used:
  1582 ;;		wreg, status,2
  1583 ;; Tracked objects:
  1584 ;;		On entry : 3E/E
  1585 ;;		On exit  : 3F/E
  1586 ;;		Unchanged: 0/0
  1587 ;; Data sizes:     COMRAM   BANK0   BANK1   BANK2   BANK3   BANK4   BANK5   BANK6   BANK7   BANK8   BANK9  BANK10  BANK1
      +1  BANK12  BANK14
  1588 ;;      Params:         0       0       0       0       0       0       0       0       0       0       0       0       
      +0       0       0
  1589 ;;      Locals:         0       0       0       0       0       0       0       0       0       0       0       0       
      +0       0       0
  1590 ;;      Temps:          0       0       0       0       0       0       0       0       0       0       0       0       
      +0       0       0
  1591 ;;      Totals:         0       0       0       0       0       0       0       0       0       0       0       0       
      +0       0       0
  1592 ;;Total ram usage:        0 bytes
  1593 ;; Hardware stack levels used:    1
  1594 ;; Hardware stack levels required when called:    5
  1595 ;; This function calls:
  1596 ;;		Nothing
  1597 ;; This function is called by:
  1598 ;;		_SYSTEM_Initialize
  1599 ;; This function uses a non-reentrant model
  1600 ;;
  1601                           
  1602                           	psect	text5
  1603  001ED2                     __ptext5:
  1604                           	opt stack 0
  1605  001ED2                     _TMR2_Initialize:
  1606                           	opt stack 24
  1607                           
  1608                           ;tmr2.c: 67: T2CLKCON = 0x01;
  1609                           
  1610                           ;incstack = 0
  1611  001ED2  0E01               	movlw	1
  1612  001ED4  6EBE               	movwf	4030,c	;volatile
  1613                           
  1614                           ;tmr2.c: 70: T2HLT = 0x00;
  1615  001ED6  6ABD               	clrf	4029,c	;volatile
  1616                           
  1617                           ;tmr2.c: 73: T2RST = 0x00;
  1618  001ED8  6ABF               	clrf	4031,c	;volatile
  1619                           
  1620                           ;tmr2.c: 76: T2PR = 0xFF;
  1621  001EDA  68BB               	setf	4027,c	;volatile
  1622                           
  1623                           ;tmr2.c: 79: T2TMR = 0x00;
  1624  001EDC  6ABA               	clrf	4026,c	;volatile
  1625                           
  1626                           ;tmr2.c: 82: PIR4bits.TMR2IF = 0;
  1627  001EDE  010E               	movlb	14	; () banked
  1628  001EE0  93C9               	bcf	201,1,b	;volatile
  1629                           
  1630                           ;tmr2.c: 85: T2CON = 0x80;
  1631  001EE2  0E80               	movlw	128
  1632  001EE4  6EBC               	movwf	4028,c	;volatile
  1633                           
  1634                           ; BSR set to: 14
  1635  001EE6  0C80               	retlw	128	;funcret
  1636  001EE8                     __end_of_TMR2_Initialize:
  1637                           	opt stack 0
  1638                           tosu	equ	0xFFF
  1639                           tosh	equ	0xFFE
  1640                           tosl	equ	0xFFD
  1641                           pclath	equ	0xFFA
  1642                           tblptru	equ	0xFF8
  1643                           tblptrh	equ	0xFF7
  1644                           tblptrl	equ	0xFF6
  1645                           tablat	equ	0xFF5
  1646                           prodl	equ	0xFF3
  1647                           intcon	equ	0xFF2
  1648                           postinc0	equ	0xFEE
  1649                           wreg	equ	0xFE8
  1650                           postinc2	equ	0xFDE
  1651                           postdec2	equ	0xFDD
  1652                           fsr2h	equ	0xFDA
  1653                           fsr2l	equ	0xFD9
  1654                           status	equ	0xFD8
  1655                           
  1656 ;; *************** function _TMR1_Initialize *****************
  1657 ;; Defined at:
  1658 ;;		line 63 in file "mcc_generated_files/tmr1.c"
  1659 ;; Parameters:    Size  Location     Type
  1660 ;;		None
  1661 ;; Auto vars:     Size  Location     Type
  1662 ;;		None
  1663 ;; Return value:  Size  Location     Type
  1664 ;;                  1    wreg      void 
  1665 ;; Registers used:
  1666 ;;		wreg, status,2, status,0
  1667 ;; Tracked objects:
  1668 ;;		On entry : 3F/E
  1669 ;;		On exit  : 3F/E
  1670 ;;		Unchanged: 0/0
  1671 ;; Data sizes:     COMRAM   BANK0   BANK1   BANK2   BANK3   BANK4   BANK5   BANK6   BANK7   BANK8   BANK9  BANK10  BANK1
      +1  BANK12  BANK14
  1672 ;;      Params:         0       0       0       0       0       0       0       0       0       0       0       0       
      +0       0       0
  1673 ;;      Locals:         0       0       0       0       0       0       0       0       0       0       0       0       
      +0       0       0
  1674 ;;      Temps:          2       0       0       0       0       0       0       0       0       0       0       0       
      +0       0       0
  1675 ;;      Totals:         2       0       0       0       0       0       0       0       0       0       0       0       
      +0       0       0
  1676 ;;Total ram usage:        2 bytes
  1677 ;; Hardware stack levels used:    1
  1678 ;; Hardware stack levels required when called:    5
  1679 ;; This function calls:
  1680 ;;		Nothing
  1681 ;; This function is called by:
  1682 ;;		_SYSTEM_Initialize
  1683 ;; This function uses a non-reentrant model
  1684 ;;
  1685                           
  1686                           	psect	text6
  1687  001C64                     __ptext6:
  1688                           	opt stack 0
  1689  001C64                     _TMR1_Initialize:
  1690                           	opt stack 24
  1691                           
  1692                           ; BSR set to: 14
  1693                           ;tmr1.c: 68: T1GCON = 0xE0;
  1694                           
  1695                           ; BSR set to: 14
  1696                           ;incstack = 0
  1697  001C64  0EE0               	movlw	224
  1698  001C66  6ECF               	movwf	4047,c	;volatile
  1699                           
  1700                           ;tmr1.c: 71: T1GATE = 0x10;
  1701  001C68  0E10               	movlw	16
  1702  001C6A  6ED0               	movwf	4048,c	;volatile
  1703                           
  1704                           ;tmr1.c: 74: T1CLK = 0x10;
  1705  001C6C  6ED1               	movwf	4049,c	;volatile
  1706                           
  1707                           ;tmr1.c: 77: TMR1H = 0x7F;
  1708  001C6E  0E7F               	movlw	127
  1709  001C70  6ECD               	movwf	4045,c	;volatile
  1710                           
  1711                           ; BSR set to: 14
  1712                           ;tmr1.c: 80: TMR1L = 0xFF;
  1713  001C72  68CC               	setf	4044,c	;volatile
  1714                           
  1715                           ; BSR set to: 14
  1716                           ;tmr1.c: 83: timer1ReloadVal=(uint16_t)((TMR1H << 8) | TMR1L);
  1717  001C74  50CC               	movf	4044,w,c	;volatile
  1718  001C76  CFCD F003          	movff	4045,??_TMR1_Initialize	;volatile
  1719  001C7A  6A04               	clrf	(??_TMR1_Initialize+1)& (0+255),c
  1720  001C7C  C003  F004         	movff	??_TMR1_Initialize,??_TMR1_Initialize+1
  1721  001C80  6A03               	clrf	??_TMR1_Initialize,c
  1722  001C82  1003               	iorwf	??_TMR1_Initialize,w,c
  1723  001C84  0100               	movlb	0	; () banked
  1724  001C86  6F7A               	movwf	_timer1ReloadVal& (0+255),b	;volatile
  1725  001C88  5004               	movf	??_TMR1_Initialize+1,w,c
  1726  001C8A  6F7B               	movwf	(_timer1ReloadVal+1)& (0+255),b	;volatile
  1727                           
  1728                           ; BSR set to: 0
  1729                           ;tmr1.c: 86: PIR4bits.TMR1IF = 0;
  1730  001C8C  010E               	movlb	14	; () banked
  1731  001C8E  91C9               	bcf	201,0,b	;volatile
  1732                           
  1733                           ; BSR set to: 14
  1734                           ;tmr1.c: 89: PIR5bits.TMR1GIF = 0;
  1735  001C90  91CA               	bcf	202,0,b	;volatile
  1736                           
  1737                           ; BSR set to: 14
  1738                           ;tmr1.c: 92: PIE5bits.TMR1GIE = 1;
  1739  001C92  81C2               	bsf	194,0,b	;volatile
  1740                           
  1741                           ; BSR set to: 14
  1742                           ;tmr1.c: 95: T1CON = 0x00;
  1743  001C94  6ACE               	clrf	4046,c	;volatile
  1744                           
  1745                           ; BSR set to: 14
  1746  001C96  0012               	return		;funcret
  1747  001C98                     __end_of_TMR1_Initialize:
  1748                           	opt stack 0
  1749                           tosu	equ	0xFFF
  1750                           tosh	equ	0xFFE
  1751                           tosl	equ	0xFFD
  1752                           pclath	equ	0xFFA
  1753                           tblptru	equ	0xFF8
  1754                           tblptrh	equ	0xFF7
  1755                           tblptrl	equ	0xFF6
  1756                           tablat	equ	0xFF5
  1757                           prodl	equ	0xFF3
  1758                           intcon	equ	0xFF2
  1759                           postinc0	equ	0xFEE
  1760                           wreg	equ	0xFE8
  1761                           postinc2	equ	0xFDE
  1762                           postdec2	equ	0xFDD
  1763                           fsr2h	equ	0xFDA
  1764                           fsr2l	equ	0xFD9
  1765                           status	equ	0xFD8
  1766                           
  1767 ;; *************** function _PWM2_Initialize *****************
  1768 ;; Defined at:
  1769 ;;		line 64 in file "mcc_generated_files/pwm2.c"
  1770 ;; Parameters:    Size  Location     Type
  1771 ;;		None
  1772 ;; Auto vars:     Size  Location     Type
  1773 ;;		None
  1774 ;; Return value:  Size  Location     Type
  1775 ;;                  1    wreg      void 
  1776 ;; Registers used:
  1777 ;;		wreg, status,2
  1778 ;; Tracked objects:
  1779 ;;		On entry : 3F/E
  1780 ;;		On exit  : 3F/E
  1781 ;;		Unchanged: 3F/0
  1782 ;; Data sizes:     COMRAM   BANK0   BANK1   BANK2   BANK3   BANK4   BANK5   BANK6   BANK7   BANK8   BANK9  BANK10  BANK1
      +1  BANK12  BANK14
  1783 ;;      Params:         0       0       0       0       0       0       0       0       0       0       0       0       
      +0       0       0
  1784 ;;      Locals:         0       0       0       0       0       0       0       0       0       0       0       0       
      +0       0       0
  1785 ;;      Temps:          0       0       0       0       0       0       0       0       0       0       0       0       
      +0       0       0
  1786 ;;      Totals:         0       0       0       0       0       0       0       0       0       0       0       0       
      +0       0       0
  1787 ;;Total ram usage:        0 bytes
  1788 ;; Hardware stack levels used:    1
  1789 ;; Hardware stack levels required when called:    5
  1790 ;; This function calls:
  1791 ;;		Nothing
  1792 ;; This function is called by:
  1793 ;;		_SYSTEM_Initialize
  1794 ;; This function uses a non-reentrant model
  1795 ;;
  1796                           
  1797                           	psect	text7
  1798  001F40                     __ptext7:
  1799                           	opt stack 0
  1800  001F40                     _PWM2_Initialize:
  1801                           	opt stack 24
  1802                           
  1803                           ; BSR set to: 14
  1804                           ;pwm2.c: 69: CCP2CON = 0x8C;
  1805                           
  1806                           ; BSR set to: 14
  1807                           ;incstack = 0
  1808  001F40  0E8C               	movlw	140
  1809  001F42  6EA7               	movwf	4007,c	;volatile
  1810                           
  1811                           ;pwm2.c: 72: CCPR2H = 0x03;
  1812  001F44  0E03               	movlw	3
  1813  001F46  6EA6               	movwf	4006,c	;volatile
  1814                           
  1815                           ; BSR set to: 14
  1816                           ;pwm2.c: 75: CCPR2L = 0xFF;
  1817  001F48  68A5               	setf	4005,c	;volatile
  1818                           
  1819                           ;pwm2.c: 78: CCPTMRSbits.C2TSEL = 0x1;
  1820  001F4A  50AD               	movf	4013,w,c	;volatile
  1821  001F4C  0BF3               	andlw	-13
  1822  001F4E  0904               	iorlw	4
  1823  001F50  6EAD               	movwf	4013,c	;volatile
  1824                           
  1825                           ; BSR set to: 14
  1826  001F52  0012               	return		;funcret
  1827  001F54                     __end_of_PWM2_Initialize:
  1828                           	opt stack 0
  1829                           tosu	equ	0xFFF
  1830                           tosh	equ	0xFFE
  1831                           tosl	equ	0xFFD
  1832                           pclath	equ	0xFFA
  1833                           tblptru	equ	0xFF8
  1834                           tblptrh	equ	0xFF7
  1835                           tblptrl	equ	0xFF6
  1836                           tablat	equ	0xFF5
  1837                           prodl	equ	0xFF3
  1838                           intcon	equ	0xFF2
  1839                           postinc0	equ	0xFEE
  1840                           wreg	equ	0xFE8
  1841                           postinc2	equ	0xFDE
  1842                           postdec2	equ	0xFDD
  1843                           fsr2h	equ	0xFDA
  1844                           fsr2l	equ	0xFD9
  1845                           status	equ	0xFD8
  1846                           
  1847 ;; *************** function _PMD_Initialize *****************
  1848 ;; Defined at:
  1849 ;;		line 81 in file "mcc_generated_files/mcc.c"
  1850 ;; Parameters:    Size  Location     Type
  1851 ;;		None
  1852 ;; Auto vars:     Size  Location     Type
  1853 ;;		None
  1854 ;; Return value:  Size  Location     Type
  1855 ;;                  1    wreg      void 
  1856 ;; Registers used:
  1857 ;;		None
  1858 ;; Tracked objects:
  1859 ;;		On entry : 0/0
  1860 ;;		On exit  : 3F/E
  1861 ;;		Unchanged: 0/0
  1862 ;; Data sizes:     COMRAM   BANK0   BANK1   BANK2   BANK3   BANK4   BANK5   BANK6   BANK7   BANK8   BANK9  BANK10  BANK1
      +1  BANK12  BANK14
  1863 ;;      Params:         0       0       0       0       0       0       0       0       0       0       0       0       
      +0       0       0
  1864 ;;      Locals:         0       0       0       0       0       0       0       0       0       0       0       0       
      +0       0       0
  1865 ;;      Temps:          0       0       0       0       0       0       0       0       0       0       0       0       
      +0       0       0
  1866 ;;      Totals:         0       0       0       0       0       0       0       0       0       0       0       0       
      +0       0       0
  1867 ;;Total ram usage:        0 bytes
  1868 ;; Hardware stack levels used:    1
  1869 ;; Hardware stack levels required when called:    5
  1870 ;; This function calls:
  1871 ;;		Nothing
  1872 ;; This function is called by:
  1873 ;;		_SYSTEM_Initialize
  1874 ;; This function uses a non-reentrant model
  1875 ;;
  1876                           
  1877                           	psect	text8
  1878  001F66                     __ptext8:
  1879                           	opt stack 0
  1880  001F66                     _PMD_Initialize:
  1881                           	opt stack 24
  1882                           
  1883                           ;mcc.c: 84: PMD0 = 0x00;
  1884                           
  1885                           ; BSR set to: 14
  1886                           ;incstack = 0
  1887  001F66  010E               	movlb	14	; () banked
  1888  001F68  6BDC               	clrf	220,b	;volatile
  1889                           
  1890                           ;mcc.c: 86: PMD1 = 0x00;
  1891  001F6A  6BDD               	clrf	221,b	;volatile
  1892                           
  1893                           ;mcc.c: 88: PMD2 = 0x00;
  1894  001F6C  6BDE               	clrf	222,b	;volatile
  1895                           
  1896                           ;mcc.c: 90: PMD3 = 0x00;
  1897  001F6E  6BDF               	clrf	223,b	;volatile
  1898                           
  1899                           ;mcc.c: 92: PMD4 = 0x00;
  1900  001F70  6BE0               	clrf	224,b	;volatile
  1901                           
  1902                           ;mcc.c: 94: PMD5 = 0x00;
  1903  001F72  6BE1               	clrf	225,b	;volatile
  1904                           
  1905                           ; BSR set to: 14
  1906  001F74  0012               	return		;funcret
  1907  001F76                     __end_of_PMD_Initialize:
  1908                           	opt stack 0
  1909                           tosu	equ	0xFFF
  1910                           tosh	equ	0xFFE
  1911                           tosl	equ	0xFFD
  1912                           pclath	equ	0xFFA
  1913                           tblptru	equ	0xFF8
  1914                           tblptrh	equ	0xFF7
  1915                           tblptrl	equ	0xFF6
  1916                           tablat	equ	0xFF5
  1917                           prodl	equ	0xFF3
  1918                           intcon	equ	0xFF2
  1919                           postinc0	equ	0xFEE
  1920                           wreg	equ	0xFE8
  1921                           postinc2	equ	0xFDE
  1922                           postdec2	equ	0xFDD
  1923                           fsr2h	equ	0xFDA
  1924                           fsr2l	equ	0xFD9
  1925                           status	equ	0xFD8
  1926                           
  1927 ;; *************** function _PIN_MANAGER_Initialize *****************
  1928 ;; Defined at:
  1929 ;;		line 57 in file "mcc_generated_files/pin_manager.c"
  1930 ;; Parameters:    Size  Location     Type
  1931 ;;		None
  1932 ;; Auto vars:     Size  Location     Type
  1933 ;;		None
  1934 ;; Return value:  Size  Location     Type
  1935 ;;                  1    wreg      void 
  1936 ;; Registers used:
  1937 ;;		wreg, status,2
  1938 ;; Tracked objects:
  1939 ;;		On entry : 3F/E
  1940 ;;		On exit  : 3F/E
  1941 ;;		Unchanged: 0/0
  1942 ;; Data sizes:     COMRAM   BANK0   BANK1   BANK2   BANK3   BANK4   BANK5   BANK6   BANK7   BANK8   BANK9  BANK10  BANK1
      +1  BANK12  BANK14
  1943 ;;      Params:         0       0       0       0       0       0       0       0       0       0       0       0       
      +0       0       0
  1944 ;;      Locals:         0       0       0       0       0       0       0       0       0       0       0       0       
      +0       0       0
  1945 ;;      Temps:          0       0       0       0       0       0       0       0       0       0       0       0       
      +0       0       0
  1946 ;;      Totals:         0       0       0       0       0       0       0       0       0       0       0       0       
      +0       0       0
  1947 ;;Total ram usage:        0 bytes
  1948 ;; Hardware stack levels used:    1
  1949 ;; Hardware stack levels required when called:    5
  1950 ;; This function calls:
  1951 ;;		Nothing
  1952 ;; This function is called by:
  1953 ;;		_SYSTEM_Initialize
  1954 ;; This function uses a non-reentrant model
  1955 ;;
  1956                           
  1957                           	psect	text9
  1958  0016F4                     __ptext9:
  1959                           	opt stack 0
  1960  0016F4                     _PIN_MANAGER_Initialize:
  1961                           	opt stack 24
  1962                           
  1963                           ; BSR set to: 14
  1964                           ;pin_manager.c: 62: LATE = 0x00;
  1965                           
  1966                           ; BSR set to: 14
  1967                           ;incstack = 0
  1968  0016F4  6A86               	clrf	3974,c	;volatile
  1969                           
  1970                           ;pin_manager.c: 63: LATD = 0x00;
  1971  0016F6  6A85               	clrf	3973,c	;volatile
  1972                           
  1973                           ;pin_manager.c: 64: LATA = 0x00;
  1974  0016F8  6A82               	clrf	3970,c	;volatile
  1975                           
  1976                           ;pin_manager.c: 65: LATB = 0x00;
  1977  0016FA  6A83               	clrf	3971,c	;volatile
  1978                           
  1979                           ;pin_manager.c: 66: LATC = 0x00;
  1980  0016FC  6A84               	clrf	3972,c	;volatile
  1981                           
  1982                           ; BSR set to: 14
  1983                           ;pin_manager.c: 71: TRISE = 0x07;
  1984  0016FE  0E07               	movlw	7
  1985  001700  6E8B               	movwf	3979,c	;volatile
  1986                           
  1987                           ;pin_manager.c: 72: TRISA = 0x0F;
  1988  001702  0E0F               	movlw	15
  1989  001704  6E87               	movwf	3975,c	;volatile
  1990                           
  1991                           ;pin_manager.c: 73: TRISB = 0xFE;
  1992  001706  0EFE               	movlw	254
  1993  001708  6E88               	movwf	3976,c	;volatile
  1994                           
  1995                           ;pin_manager.c: 74: TRISC = 0xBF;
  1996  00170A  0EBF               	movlw	191
  1997  00170C  6E89               	movwf	3977,c	;volatile
  1998                           
  1999                           ;pin_manager.c: 75: TRISD = 0xF1;
  2000  00170E  0EF1               	movlw	241
  2001  001710  6E8A               	movwf	3978,c	;volatile
  2002                           
  2003                           ;pin_manager.c: 80: ANSELD = 0x71;
  2004  001712  0E71               	movlw	113
  2005  001714  010F               	movlb	15	; () banked
  2006  001716  6F21               	movwf	33,b	;volatile
  2007                           
  2008                           ;pin_manager.c: 81: ANSELC = 0x9F;
  2009  001718  0E9F               	movlw	159
  2010  00171A  6F1C               	movwf	28,b	;volatile
  2011                           
  2012                           ;pin_manager.c: 82: ANSELB = 0xE8;
  2013  00171C  0EE8               	movlw	232
  2014  00171E  6F14               	movwf	20,b	;volatile
  2015                           
  2016                           ;pin_manager.c: 83: ANSELE = 0x07;
  2017  001720  0E07               	movlw	7
  2018  001722  6F29               	movwf	41,b	;volatile
  2019                           
  2020                           ;pin_manager.c: 84: ANSELA = 0x0B;
  2021  001724  0E0B               	movlw	11
  2022  001726  6F0C               	movwf	12,b	;volatile
  2023                           
  2024                           ; BSR set to: 15
  2025                           ;pin_manager.c: 89: WPUD = 0x00;
  2026  001728  6B20               	clrf	32,b	;volatile
  2027                           
  2028                           ; BSR set to: 15
  2029                           ;pin_manager.c: 90: WPUE = 0x00;
  2030  00172A  6B28               	clrf	40,b	;volatile
  2031                           
  2032                           ; BSR set to: 15
  2033                           ;pin_manager.c: 91: WPUB = 0x00;
  2034  00172C  6B13               	clrf	19,b	;volatile
  2035                           
  2036                           ; BSR set to: 15
  2037                           ;pin_manager.c: 92: WPUA = 0x00;
  2038  00172E  6B0B               	clrf	11,b	;volatile
  2039                           
  2040                           ; BSR set to: 15
  2041                           ;pin_manager.c: 93: WPUC = 0x00;
  2042  001730  6B1B               	clrf	27,b	;volatile
  2043                           
  2044                           ; BSR set to: 15
  2045                           ;pin_manager.c: 98: ODCONE = 0x00;
  2046  001732  6B27               	clrf	39,b	;volatile
  2047                           
  2048                           ; BSR set to: 15
  2049                           ;pin_manager.c: 99: ODCONA = 0x00;
  2050  001734  6B0A               	clrf	10,b	;volatile
  2051                           
  2052                           ; BSR set to: 15
  2053                           ;pin_manager.c: 100: ODCONB = 0x00;
  2054  001736  6B12               	clrf	18,b	;volatile
  2055                           
  2056                           ; BSR set to: 15
  2057                           ;pin_manager.c: 101: ODCONC = 0x00;
  2058  001738  6B1A               	clrf	26,b	;volatile
  2059                           
  2060                           ; BSR set to: 15
  2061                           ;pin_manager.c: 102: ODCOND = 0x00;
  2062  00173A  6B1F               	clrf	31,b	;volatile
  2063                           
  2064                           ; BSR set to: 15
  2065                           ;pin_manager.c: 107: SLRCONA = 0xFF;
  2066  00173C  6909               	setf	9,b	;volatile
  2067                           
  2068                           ; BSR set to: 15
  2069                           ;pin_manager.c: 108: SLRCONB = 0xFF;
  2070  00173E  6911               	setf	17,b	;volatile
  2071                           
  2072                           ; BSR set to: 15
  2073                           ;pin_manager.c: 109: SLRCONC = 0xFF;
  2074  001740  6919               	setf	25,b	;volatile
  2075                           
  2076                           ; BSR set to: 15
  2077                           ;pin_manager.c: 110: SLRCOND = 0xFF;
  2078  001742  691E               	setf	30,b	;volatile
  2079                           
  2080                           ;pin_manager.c: 111: SLRCONE = 0x07;
  2081  001744  0E07               	movlw	7
  2082  001746  6F26               	movwf	38,b	;volatile
  2083                           
  2084                           ;pin_manager.c: 120: RD2PPS = 0x03;
  2085  001748  0E03               	movlw	3
  2086  00174A  010E               	movlb	14	; () banked
  2087  00174C  6FFC               	movwf	252,b	;volatile
  2088                           
  2089                           ;pin_manager.c: 121: CLC1PPS = 0x02;
  2090  00174E  0E02               	movlw	2
  2091  001750  6F1F               	movwf	31,b	;volatile
  2092                           
  2093                           ;pin_manager.c: 122: CWGINPPS = 0x1F;
  2094  001752  0E1F               	movlw	31
  2095  001754  6FAC               	movwf	172,b	;volatile
  2096                           
  2097                           ;pin_manager.c: 123: RB0PPS = 0x01;
  2098  001756  0E01               	movlw	1
  2099  001758  6FEA               	movwf	234,b	;volatile
  2100                           
  2101                           ;pin_manager.c: 124: RD3PPS = 0x04;
  2102  00175A  0E04               	movlw	4
  2103  00175C  6FFD               	movwf	253,b	;volatile
  2104                           
  2105                           ;pin_manager.c: 125: RD1PPS = 0x02;
  2106  00175E  0E02               	movlw	2
  2107  001760  6FFB               	movwf	251,b	;volatile
  2108                           
  2109                           ;pin_manager.c: 126: RC6PPS = 0x09;
  2110  001762  0E09               	movlw	9
  2111  001764  6FF8               	movwf	248,b	;volatile
  2112                           
  2113                           ; BSR set to: 14
  2114  001766  0C09               	retlw	9	;funcret
  2115  001768                     __end_of_PIN_MANAGER_Initialize:
  2116                           	opt stack 0
  2117                           tosu	equ	0xFFF
  2118                           tosh	equ	0xFFE
  2119                           tosl	equ	0xFFD
  2120                           pclath	equ	0xFFA
  2121                           tblptru	equ	0xFF8
  2122                           tblptrh	equ	0xFF7
  2123                           tblptrl	equ	0xFF6
  2124                           tablat	equ	0xFF5
  2125                           prodl	equ	0xFF3
  2126                           intcon	equ	0xFF2
  2127                           postinc0	equ	0xFEE
  2128                           wreg	equ	0xFE8
  2129                           postinc2	equ	0xFDE
  2130                           postdec2	equ	0xFDD
  2131                           fsr2h	equ	0xFDA
  2132                           fsr2l	equ	0xFD9
  2133                           status	equ	0xFD8
  2134                           
  2135 ;; *************** function _OSCILLATOR_Initialize *****************
  2136 ;; Defined at:
  2137 ;;		line 67 in file "mcc_generated_files/mcc.c"
  2138 ;; Parameters:    Size  Location     Type
  2139 ;;		None
  2140 ;; Auto vars:     Size  Location     Type
  2141 ;;		None
  2142 ;; Return value:  Size  Location     Type
  2143 ;;                  1    wreg      void 
  2144 ;; Registers used:
  2145 ;;		wreg, status,2
  2146 ;; Tracked objects:
  2147 ;;		On entry : 3F/E
  2148 ;;		On exit  : 3F/E
  2149 ;;		Unchanged: 0/0
  2150 ;; Data sizes:     COMRAM   BANK0   BANK1   BANK2   BANK3   BANK4   BANK5   BANK6   BANK7   BANK8   BANK9  BANK10  BANK1
      +1  BANK12  BANK14
  2151 ;;      Params:         0       0       0       0       0       0       0       0       0       0       0       0       
      +0       0       0
  2152 ;;      Locals:         0       0       0       0       0       0       0       0       0       0       0       0       
      +0       0       0
  2153 ;;      Temps:          0       0       0       0       0       0       0       0       0       0       0       0       
      +0       0       0
  2154 ;;      Totals:         0       0       0       0       0       0       0       0       0       0       0       0       
      +0       0       0
  2155 ;;Total ram usage:        0 bytes
  2156 ;; Hardware stack levels used:    1
  2157 ;; Hardware stack levels required when called:    5
  2158 ;; This function calls:
  2159 ;;		Nothing
  2160 ;; This function is called by:
  2161 ;;		_SYSTEM_Initialize
  2162 ;; This function uses a non-reentrant model
  2163 ;;
  2164                           
  2165                           	psect	text10
  2166  001F76                     __ptext10:
  2167                           	opt stack 0
  2168  001F76                     _OSCILLATOR_Initialize:
  2169                           	opt stack 24
  2170                           
  2171                           ; BSR set to: 14
  2172                           ;mcc.c: 70: OSCCON1 = 0x60;
  2173                           
  2174                           ; BSR set to: 14
  2175                           ;incstack = 0
  2176  001F76  0E60               	movlw	96
  2177  001F78  6FD3               	movwf	211,b	;volatile
  2178                           
  2179                           ; BSR set to: 14
  2180                           ;mcc.c: 72: OSCCON3 = 0x00;
  2181  001F7A  6BD5               	clrf	213,b	;volatile
  2182                           
  2183                           ; BSR set to: 14
  2184                           ;mcc.c: 74: OSCEN = 0x00;
  2185  001F7C  6BD7               	clrf	215,b	;volatile
  2186                           
  2187                           ;mcc.c: 76: OSCFRQ = 0x05;
  2188  001F7E  0E05               	movlw	5
  2189  001F80  6FD9               	movwf	217,b	;volatile
  2190                           
  2191                           ; BSR set to: 14
  2192                           ;mcc.c: 78: OSCTUNE = 0x00;
  2193  001F82  6BD8               	clrf	216,b	;volatile
  2194                           
  2195                           ; BSR set to: 14
  2196  001F84  0012               	return		;funcret
  2197  001F86                     __end_of_OSCILLATOR_Initialize:
  2198                           	opt stack 0
  2199                           tosu	equ	0xFFF
  2200                           tosh	equ	0xFFE
  2201                           tosl	equ	0xFFD
  2202                           pclath	equ	0xFFA
  2203                           tblptru	equ	0xFF8
  2204                           tblptrh	equ	0xFF7
  2205                           tblptrl	equ	0xFF6
  2206                           tablat	equ	0xFF5
  2207                           prodl	equ	0xFF3
  2208                           intcon	equ	0xFF2
  2209                           postinc0	equ	0xFEE
  2210                           wreg	equ	0xFE8
  2211                           postinc2	equ	0xFDE
  2212                           postdec2	equ	0xFDD
  2213                           fsr2h	equ	0xFDA
  2214                           fsr2l	equ	0xFD9
  2215                           status	equ	0xFD8
  2216                           
  2217 ;; *************** function _INTERRUPT_Initialize *****************
  2218 ;; Defined at:
  2219 ;;		line 52 in file "mcc_generated_files/interrupt_manager.c"
  2220 ;; Parameters:    Size  Location     Type
  2221 ;;		None
  2222 ;; Auto vars:     Size  Location     Type
  2223 ;;		None
  2224 ;; Return value:  Size  Location     Type
  2225 ;;                  1    wreg      void 
  2226 ;; Registers used:
  2227 ;;		None
  2228 ;; Tracked objects:
  2229 ;;		On entry : 0/0
  2230 ;;		On exit  : 0/0
  2231 ;;		Unchanged: 0/0
  2232 ;; Data sizes:     COMRAM   BANK0   BANK1   BANK2   BANK3   BANK4   BANK5   BANK6   BANK7   BANK8   BANK9  BANK10  BANK1
      +1  BANK12  BANK14
  2233 ;;      Params:         0       0       0       0       0       0       0       0       0       0       0       0       
      +0       0       0
  2234 ;;      Locals:         0       0       0       0       0       0       0       0       0       0       0       0       
      +0       0       0
  2235 ;;      Temps:          0       0       0       0       0       0       0       0       0       0       0       0       
      +0       0       0
  2236 ;;      Totals:         0       0       0       0       0       0       0       0       0       0       0       0       
      +0       0       0
  2237 ;;Total ram usage:        0 bytes
  2238 ;; Hardware stack levels used:    1
  2239 ;; Hardware stack levels required when called:    5
  2240 ;; This function calls:
  2241 ;;		Nothing
  2242 ;; This function is called by:
  2243 ;;		_SYSTEM_Initialize
  2244 ;; This function uses a non-reentrant model
  2245 ;;
  2246                           
  2247                           	psect	text11
  2248  001FDC                     __ptext11:
  2249                           	opt stack 0
  2250  001FDC                     _INTERRUPT_Initialize:
  2251                           	opt stack 24
  2252                           
  2253                           ;interrupt_manager.c: 55: INTCONbits.IPEN = 0;
  2254                           
  2255                           ; BSR set to: 14
  2256                           ;incstack = 0
  2257  001FDC  9AF2               	bcf	intcon,5,c	;volatile
  2258  001FDE  0012               	return		;funcret
  2259  001FE0                     __end_of_INTERRUPT_Initialize:
  2260                           	opt stack 0
  2261                           tosu	equ	0xFFF
  2262                           tosh	equ	0xFFE
  2263                           tosl	equ	0xFFD
  2264                           pclath	equ	0xFFA
  2265                           tblptru	equ	0xFF8
  2266                           tblptrh	equ	0xFF7
  2267                           tblptrl	equ	0xFF6
  2268                           tablat	equ	0xFF5
  2269                           prodl	equ	0xFF3
  2270                           intcon	equ	0xFF2
  2271                           postinc0	equ	0xFEE
  2272                           wreg	equ	0xFE8
  2273                           postinc2	equ	0xFDE
  2274                           postdec2	equ	0xFDD
  2275                           fsr2h	equ	0xFDA
  2276                           fsr2l	equ	0xFD9
  2277                           status	equ	0xFD8
  2278                           
  2279 ;; *************** function _EUSART1_Initialize *****************
  2280 ;; Defined at:
  2281 ;;		line 56 in file "mcc_generated_files/eusart1.c"
  2282 ;; Parameters:    Size  Location     Type
  2283 ;;		None
  2284 ;; Auto vars:     Size  Location     Type
  2285 ;;		None
  2286 ;; Return value:  Size  Location     Type
  2287 ;;                  1    wreg      void 
  2288 ;; Registers used:
  2289 ;;		wreg, status,2
  2290 ;; Tracked objects:
  2291 ;;		On entry : 3F/F
  2292 ;;		On exit  : 3F/F
  2293 ;;		Unchanged: 3E/0
  2294 ;; Data sizes:     COMRAM   BANK0   BANK1   BANK2   BANK3   BANK4   BANK5   BANK6   BANK7   BANK8   BANK9  BANK10  BANK1
      +1  BANK12  BANK14
  2295 ;;      Params:         0       0       0       0       0       0       0       0       0       0       0       0       
      +0       0       0
  2296 ;;      Locals:         0       0       0       0       0       0       0       0       0       0       0       0       
      +0       0       0
  2297 ;;      Temps:          0       0       0       0       0       0       0       0       0       0       0       0       
      +0       0       0
  2298 ;;      Totals:         0       0       0       0       0       0       0       0       0       0       0       0       
      +0       0       0
  2299 ;;Total ram usage:        0 bytes
  2300 ;; Hardware stack levels used:    1
  2301 ;; Hardware stack levels required when called:    5
  2302 ;; This function calls:
  2303 ;;		Nothing
  2304 ;; This function is called by:
  2305 ;;		_SYSTEM_Initialize
  2306 ;; This function uses a non-reentrant model
  2307 ;;
  2308                           
  2309                           	psect	text12
  2310  001EE8                     __ptext12:
  2311                           	opt stack 0
  2312  001EE8                     _EUSART1_Initialize:
  2313                           	opt stack 24
  2314                           
  2315                           ; BSR set to: 15
  2316                           ;eusart1.c: 61: BAUD1CON = 0x08;
  2317                           
  2318                           ;incstack = 0
  2319  001EE8  0E08               	movlw	8
  2320  001EEA  6E9E               	movwf	3998,c	;volatile
  2321                           
  2322                           ;eusart1.c: 64: RC1STA = 0x80;
  2323  001EEC  0E80               	movlw	128
  2324  001EEE  6E9C               	movwf	3996,c	;volatile
  2325                           
  2326                           ;eusart1.c: 67: TX1STA = 0x24;
  2327  001EF0  0E24               	movlw	36
  2328  001EF2  6E9D               	movwf	3997,c	;volatile
  2329                           
  2330                           ;eusart1.c: 70: SP1BRGL = 0xA0;
  2331  001EF4  0EA0               	movlw	160
  2332  001EF6  6E9A               	movwf	3994,c	;volatile
  2333                           
  2334                           ;eusart1.c: 73: SP1BRGH = 0x01;
  2335  001EF8  0E01               	movlw	1
  2336  001EFA  6E9B               	movwf	3995,c	;volatile
  2337                           
  2338                           ; BSR set to: 15
  2339  001EFC  0C01               	retlw	1	;funcret
  2340  001EFE                     __end_of_EUSART1_Initialize:
  2341                           	opt stack 0
  2342                           tosu	equ	0xFFF
  2343                           tosh	equ	0xFFE
  2344                           tosl	equ	0xFFD
  2345                           pclath	equ	0xFFA
  2346                           tblptru	equ	0xFF8
  2347                           tblptrh	equ	0xFF7
  2348                           tblptrl	equ	0xFF6
  2349                           tablat	equ	0xFF5
  2350                           prodl	equ	0xFF3
  2351                           intcon	equ	0xFF2
  2352                           postinc0	equ	0xFEE
  2353                           wreg	equ	0xFE8
  2354                           postinc2	equ	0xFDE
  2355                           postdec2	equ	0xFDD
  2356                           fsr2h	equ	0xFDA
  2357                           fsr2l	equ	0xFD9
  2358                           status	equ	0xFD8
  2359                           
  2360 ;; *************** function _CWG_Initialize *****************
  2361 ;; Defined at:
  2362 ;;		line 58 in file "mcc_generated_files/cwg.c"
  2363 ;; Parameters:    Size  Location     Type
  2364 ;;		None
  2365 ;; Auto vars:     Size  Location     Type
  2366 ;;		None
  2367 ;; Return value:  Size  Location     Type
  2368 ;;                  1    wreg      void 
  2369 ;; Registers used:
  2370 ;;		wreg, status,2
  2371 ;; Tracked objects:
  2372 ;;		On entry : 3F/E
  2373 ;;		On exit  : 3F/F
  2374 ;;		Unchanged: 0/0
  2375 ;; Data sizes:     COMRAM   BANK0   BANK1   BANK2   BANK3   BANK4   BANK5   BANK6   BANK7   BANK8   BANK9  BANK10  BANK1
      +1  BANK12  BANK14
  2376 ;;      Params:         0       0       0       0       0       0       0       0       0       0       0       0       
      +0       0       0
  2377 ;;      Locals:         0       0       0       0       0       0       0       0       0       0       0       0       
      +0       0       0
  2378 ;;      Temps:          0       0       0       0       0       0       0       0       0       0       0       0       
      +0       0       0
  2379 ;;      Totals:         0       0       0       0       0       0       0       0       0       0       0       0       
      +0       0       0
  2380 ;;Total ram usage:        0 bytes
  2381 ;; Hardware stack levels used:    1
  2382 ;; Hardware stack levels required when called:    5
  2383 ;; This function calls:
  2384 ;;		Nothing
  2385 ;; This function is called by:
  2386 ;;		_SYSTEM_Initialize
  2387 ;; This function uses a non-reentrant model
  2388 ;;
  2389                           
  2390                           	psect	text13
  2391  001DDC                     __ptext13:
  2392                           	opt stack 0
  2393  001DDC                     _CWG_Initialize:
  2394                           	opt stack 24
  2395                           
  2396                           ; BSR set to: 14
  2397                           ;cwg.c: 63: CWG1CON1 = 0x00;
  2398                           
  2399                           ; BSR set to: 15
  2400                           ;incstack = 0
  2401  001DDC  010F               	movlb	15	; () banked
  2402  001DDE  6B40               	clrf	64,b	;volatile
  2403                           
  2404                           ;cwg.c: 66: CWG1DBR = 0x00;
  2405  001DE0  6B3D               	clrf	61,b	;volatile
  2406                           
  2407                           ;cwg.c: 69: CWG1DBF = 0x00;
  2408  001DE2  6B3E               	clrf	62,b	;volatile
  2409                           
  2410                           ; BSR set to: 15
  2411                           ;cwg.c: 72: CWG1AS0 = 0x14;
  2412  001DE4  0E14               	movlw	20
  2413  001DE6  6F41               	movwf	65,b	;volatile
  2414                           
  2415                           ; BSR set to: 15
  2416                           ;cwg.c: 75: CWG1AS1 = 0x00;
  2417  001DE8  6B42               	clrf	66,b	;volatile
  2418                           
  2419                           ; BSR set to: 15
  2420                           ;cwg.c: 78: CWG1STR = 0x00;
  2421  001DEA  6B43               	clrf	67,b	;volatile
  2422                           
  2423                           ;cwg.c: 81: CWG1CLKCON = 0x01;
  2424  001DEC  0E01               	movlw	1
  2425  001DEE  6F3B               	movwf	59,b	;volatile
  2426                           
  2427                           ;cwg.c: 84: CWG1ISM = 0x02;
  2428  001DF0  0E02               	movlw	2
  2429  001DF2  6F3C               	movwf	60,b	;volatile
  2430                           
  2431                           ;cwg.c: 87: CWG1CON0 = 0x82;
  2432  001DF4  0E82               	movlw	130
  2433  001DF6  6F3F               	movwf	63,b	;volatile
  2434                           
  2435                           ; BSR set to: 15
  2436  001DF8  0C82               	retlw	130	;funcret
  2437  001DFA                     __end_of_CWG_Initialize:
  2438                           	opt stack 0
  2439                           tosu	equ	0xFFF
  2440                           tosh	equ	0xFFE
  2441                           tosl	equ	0xFFD
  2442                           pclath	equ	0xFFA
  2443                           tblptru	equ	0xFF8
  2444                           tblptrh	equ	0xFF7
  2445                           tblptrl	equ	0xFF6
  2446                           tablat	equ	0xFF5
  2447                           prodl	equ	0xFF3
  2448                           intcon	equ	0xFF2
  2449                           postinc0	equ	0xFEE
  2450                           wreg	equ	0xFE8
  2451                           postinc2	equ	0xFDE
  2452                           postdec2	equ	0xFDD
  2453                           fsr2h	equ	0xFDA
  2454                           fsr2l	equ	0xFD9
  2455                           status	equ	0xFD8
  2456                           
  2457 ;; *************** function _CLC1_Initialize *****************
  2458 ;; Defined at:
  2459 ;;		line 58 in file "mcc_generated_files/clc1.c"
  2460 ;; Parameters:    Size  Location     Type
  2461 ;;		None
  2462 ;; Auto vars:     Size  Location     Type
  2463 ;;		None
  2464 ;; Return value:  Size  Location     Type
  2465 ;;                  1    wreg      void 
  2466 ;; Registers used:
  2467 ;;		wreg, status,2
  2468 ;; Tracked objects:
  2469 ;;		On entry : 3F/E
  2470 ;;		On exit  : 3F/E
  2471 ;;		Unchanged: 0/0
  2472 ;; Data sizes:     COMRAM   BANK0   BANK1   BANK2   BANK3   BANK4   BANK5   BANK6   BANK7   BANK8   BANK9  BANK10  BANK1
      +1  BANK12  BANK14
  2473 ;;      Params:         0       0       0       0       0       0       0       0       0       0       0       0       
      +0       0       0
  2474 ;;      Locals:         0       0       0       0       0       0       0       0       0       0       0       0       
      +0       0       0
  2475 ;;      Temps:          0       0       0       0       0       0       0       0       0       0       0       0       
      +0       0       0
  2476 ;;      Totals:         0       0       0       0       0       0       0       0       0       0       0       0       
      +0       0       0
  2477 ;;Total ram usage:        0 bytes
  2478 ;; Hardware stack levels used:    1
  2479 ;; Hardware stack levels required when called:    5
  2480 ;; This function calls:
  2481 ;;		Nothing
  2482 ;; This function is called by:
  2483 ;;		_SYSTEM_Initialize
  2484 ;; This function uses a non-reentrant model
  2485 ;;
  2486                           
  2487                           	psect	text14
  2488  001E36                     __ptext14:
  2489                           	opt stack 0
  2490  001E36                     _CLC1_Initialize:
  2491                           	opt stack 24
  2492                           
  2493                           ; BSR set to: 14
  2494                           ;clc1.c: 63: CLC1POL = 0x0E;
  2495                           
  2496                           ; BSR set to: 15
  2497                           ;incstack = 0
  2498  001E36  0E0E               	movlw	14
  2499  001E38  6F28               	movwf	40,b	;volatile
  2500                           
  2501                           ; BSR set to: 14
  2502                           ;clc1.c: 65: CLC1SEL0 = 0x00;
  2503  001E3A  6B29               	clrf	41,b	;volatile
  2504                           
  2505                           ; BSR set to: 14
  2506                           ;clc1.c: 67: CLC1SEL1 = 0x00;
  2507  001E3C  6B2A               	clrf	42,b	;volatile
  2508                           
  2509                           ; BSR set to: 14
  2510                           ;clc1.c: 69: CLC1SEL2 = 0x00;
  2511  001E3E  6B2B               	clrf	43,b	;volatile
  2512                           
  2513                           ; BSR set to: 14
  2514                           ;clc1.c: 71: CLC1SEL3 = 0x00;
  2515  001E40  6B2C               	clrf	44,b	;volatile
  2516                           
  2517                           ;clc1.c: 73: CLC1GLS0 = 0x02;
  2518  001E42  0E02               	movlw	2
  2519  001E44  6F2D               	movwf	45,b	;volatile
  2520                           
  2521                           ; BSR set to: 14
  2522                           ;clc1.c: 75: CLC1GLS1 = 0x00;
  2523  001E46  6B2E               	clrf	46,b	;volatile
  2524                           
  2525                           ; BSR set to: 14
  2526                           ;clc1.c: 77: CLC1GLS2 = 0x00;
  2527  001E48  6B2F               	clrf	47,b	;volatile
  2528                           
  2529                           ; BSR set to: 14
  2530                           ;clc1.c: 79: CLC1GLS3 = 0x00;
  2531  001E4A  6B30               	clrf	48,b	;volatile
  2532                           
  2533                           ;clc1.c: 81: CLC1CON = 0x82;
  2534  001E4C  0E82               	movlw	130
  2535  001E4E  6F27               	movwf	39,b	;volatile
  2536                           
  2537                           ; BSR set to: 14
  2538  001E50  0C82               	retlw	130	;funcret
  2539  001E52                     __end_of_CLC1_Initialize:
  2540                           	opt stack 0
  2541                           tosu	equ	0xFFF
  2542                           tosh	equ	0xFFE
  2543                           tosl	equ	0xFFD
  2544                           pclath	equ	0xFFA
  2545                           tblptru	equ	0xFF8
  2546                           tblptrh	equ	0xFF7
  2547                           tblptrl	equ	0xFF6
  2548                           tablat	equ	0xFF5
  2549                           prodl	equ	0xFF3
  2550                           intcon	equ	0xFF2
  2551                           postinc0	equ	0xFEE
  2552                           wreg	equ	0xFE8
  2553                           postinc2	equ	0xFDE
  2554                           postdec2	equ	0xFDD
  2555                           fsr2h	equ	0xFDA
  2556                           fsr2l	equ	0xFD9
  2557                           status	equ	0xFD8
  2558                           
  2559 ;; *************** function _CCP1_Initialize *****************
  2560 ;; Defined at:
  2561 ;;		line 58 in file "mcc_generated_files/ccp1.c"
  2562 ;; Parameters:    Size  Location     Type
  2563 ;;		None
  2564 ;; Auto vars:     Size  Location     Type
  2565 ;;		None
  2566 ;; Return value:  Size  Location     Type
  2567 ;;                  1    wreg      void 
  2568 ;; Registers used:
  2569 ;;		wreg, status,2
  2570 ;; Tracked objects:
  2571 ;;		On entry : 3F/F
  2572 ;;		On exit  : 3F/E
  2573 ;;		Unchanged: 0/0
  2574 ;; Data sizes:     COMRAM   BANK0   BANK1   BANK2   BANK3   BANK4   BANK5   BANK6   BANK7   BANK8   BANK9  BANK10  BANK1
      +1  BANK12  BANK14
  2575 ;;      Params:         0       0       0       0       0       0       0       0       0       0       0       0       
      +0       0       0
  2576 ;;      Locals:         0       0       0       0       0       0       0       0       0       0       0       0       
      +0       0       0
  2577 ;;      Temps:          0       0       0       0       0       0       0       0       0       0       0       0       
      +0       0       0
  2578 ;;      Totals:         0       0       0       0       0       0       0       0       0       0       0       0       
      +0       0       0
  2579 ;;Total ram usage:        0 bytes
  2580 ;; Hardware stack levels used:    1
  2581 ;; Hardware stack levels required when called:    5
  2582 ;; This function calls:
  2583 ;;		Nothing
  2584 ;; This function is called by:
  2585 ;;		_SYSTEM_Initialize
  2586 ;; This function uses a non-reentrant model
  2587 ;;
  2588                           
  2589                           	psect	text15
  2590  001E8A                     __ptext15:
  2591                           	opt stack 0
  2592  001E8A                     _CCP1_Initialize:
  2593                           	opt stack 24
  2594                           
  2595                           ; BSR set to: 15
  2596                           ;ccp1.c: 63: CCP1CON = 0x82;
  2597                           
  2598                           ; BSR set to: 14
  2599                           ;incstack = 0
  2600  001E8A  0E82               	movlw	130
  2601  001E8C  6EAB               	movwf	4011,c	;volatile
  2602                           
  2603                           ; BSR set to: 15
  2604                           ;ccp1.c: 66: CCPR1H = 0x00;
  2605  001E8E  6AAA               	clrf	4010,c	;volatile
  2606                           
  2607                           ; BSR set to: 15
  2608                           ;ccp1.c: 69: CCPR1L = 0x00;
  2609  001E90  6AA9               	clrf	4009,c	;volatile
  2610                           
  2611                           ;ccp1.c: 72: CCPTMRSbits.C1TSEL = 0x1;
  2612  001E92  50AD               	movf	4013,w,c	;volatile
  2613  001E94  0BFC               	andlw	-4
  2614  001E96  0901               	iorlw	1
  2615  001E98  6EAD               	movwf	4013,c	;volatile
  2616                           
  2617                           ; BSR set to: 15
  2618                           ;ccp1.c: 75: PIR6bits.CCP1IF = 0;
  2619  001E9A  010E               	movlb	14	; () banked
  2620  001E9C  91CB               	bcf	203,0,b	;volatile
  2621                           
  2622                           ; BSR set to: 14
  2623                           ;ccp1.c: 78: PIE6bits.CCP1IE = 1;
  2624  001E9E  81C3               	bsf	195,0,b	;volatile
  2625                           
  2626                           ; BSR set to: 14
  2627  001EA0  0012               	return		;funcret
  2628  001EA2                     __end_of_CCP1_Initialize:
  2629                           	opt stack 0
  2630                           tosu	equ	0xFFF
  2631                           tosh	equ	0xFFE
  2632                           tosl	equ	0xFFD
  2633                           pclath	equ	0xFFA
  2634                           tblptru	equ	0xFF8
  2635                           tblptrh	equ	0xFF7
  2636                           tblptrl	equ	0xFF6
  2637                           tablat	equ	0xFF5
  2638                           prodl	equ	0xFF3
  2639                           intcon	equ	0xFF2
  2640                           postinc0	equ	0xFEE
  2641                           wreg	equ	0xFE8
  2642                           postinc2	equ	0xFDE
  2643                           postdec2	equ	0xFDD
  2644                           fsr2h	equ	0xFDA
  2645                           fsr2l	equ	0xFD9
  2646                           status	equ	0xFD8
  2647                           
  2648 ;; *************** function _ADCC_Initialize *****************
  2649 ;; Defined at:
  2650 ;;		line 62 in file "mcc_generated_files/adcc.c"
  2651 ;; Parameters:    Size  Location     Type
  2652 ;;		None
  2653 ;; Auto vars:     Size  Location     Type
  2654 ;;		None
  2655 ;; Return value:  Size  Location     Type
  2656 ;;                  1    wreg      void 
  2657 ;; Registers used:
  2658 ;;		wreg, status,2
  2659 ;; Tracked objects:
  2660 ;;		On entry : 3F/E
  2661 ;;		On exit  : 3F/F
  2662 ;;		Unchanged: 0/0
  2663 ;; Data sizes:     COMRAM   BANK0   BANK1   BANK2   BANK3   BANK4   BANK5   BANK6   BANK7   BANK8   BANK9  BANK10  BANK1
      +1  BANK12  BANK14
  2664 ;;      Params:         0       0       0       0       0       0       0       0       0       0       0       0       
      +0       0       0
  2665 ;;      Locals:         0       0       0       0       0       0       0       0       0       0       0       0       
      +0       0       0
  2666 ;;      Temps:          0       0       0       0       0       0       0       0       0       0       0       0       
      +0       0       0
  2667 ;;      Totals:         0       0       0       0       0       0       0       0       0       0       0       0       
      +0       0       0
  2668 ;;Total ram usage:        0 bytes
  2669 ;; Hardware stack levels used:    1
  2670 ;; Hardware stack levels required when called:    5
  2671 ;; This function calls:
  2672 ;;		Nothing
  2673 ;; This function is called by:
  2674 ;;		_SYSTEM_Initialize
  2675 ;; This function uses a non-reentrant model
  2676 ;;
  2677                           
  2678                           	psect	text16
  2679  001CFC                     __ptext16:
  2680                           	opt stack 0
  2681  001CFC                     _ADCC_Initialize:
  2682                           	opt stack 24
  2683                           
  2684                           ; BSR set to: 14
  2685                           ;adcc.c: 66: ADLTHL = 0x00;
  2686                           
  2687                           ; BSR set to: 14
  2688                           ;incstack = 0
  2689  001CFC  6A65               	clrf	3941,c	;volatile
  2690                           
  2691                           ;adcc.c: 68: ADLTHH = 0x00;
  2692  001CFE  6A66               	clrf	3942,c	;volatile
  2693                           
  2694                           ;adcc.c: 70: ADUTHL = 0x00;
  2695  001D00  6A67               	clrf	3943,c	;volatile
  2696                           
  2697                           ;adcc.c: 72: ADUTHH = 0x00;
  2698  001D02  6A68               	clrf	3944,c	;volatile
  2699                           
  2700                           ;adcc.c: 74: ADSTPTL = 0x00;
  2701  001D04  6A63               	clrf	3939,c	;volatile
  2702                           
  2703                           ;adcc.c: 76: ADSTPTH = 0x00;
  2704  001D06  6A64               	clrf	3940,c	;volatile
  2705                           
  2706                           ;adcc.c: 78: ADRPT = 0x00;
  2707  001D08  6A61               	clrf	3937,c	;volatile
  2708                           
  2709                           ;adcc.c: 80: ADPCH = 0x00;
  2710  001D0A  010F               	movlb	15	; () banked
  2711  001D0C  6B5A               	clrf	90,b	;volatile
  2712                           
  2713                           ;adcc.c: 82: ADCAP = 0x00;
  2714  001D0E  6B58               	clrf	88,b	;volatile
  2715                           
  2716                           ;adcc.c: 84: ADCON1 = 0x00;
  2717  001D10  6B54               	clrf	84,b	;volatile
  2718                           
  2719                           ;adcc.c: 86: ADCON2 = 0x00;
  2720  001D12  6B55               	clrf	85,b	;volatile
  2721                           
  2722                           ;adcc.c: 88: ADCON3 = 0x00;
  2723  001D14  6B56               	clrf	86,b	;volatile
  2724                           
  2725                           ;adcc.c: 90: ADSTAT = 0x00;
  2726  001D16  6A60               	clrf	3936,c	;volatile
  2727                           
  2728                           ;adcc.c: 92: ADREF = 0x00;
  2729  001D18  6B53               	clrf	83,b	;volatile
  2730                           
  2731                           ;adcc.c: 94: ADACT = 0x00;
  2732  001D1A  6B51               	clrf	81,b	;volatile
  2733                           
  2734                           ; BSR set to: 15
  2735                           ;adcc.c: 96: ADCLK = 0x07;
  2736  001D1C  0E07               	movlw	7
  2737  001D1E  6F52               	movwf	82,b	;volatile
  2738                           
  2739                           ;adcc.c: 98: ADCON0 = 0x84;
  2740  001D20  0E84               	movlw	132
  2741  001D22  6F5B               	movwf	91,b	;volatile
  2742                           
  2743                           ; BSR set to: 15
  2744                           ;adcc.c: 100: ADACQ = 0x00;
  2745  001D24  6B57               	clrf	87,b	;volatile
  2746                           
  2747                           ; BSR set to: 15
  2748  001D26  0012               	return		;funcret
  2749  001D28                     __end_of_ADCC_Initialize:
  2750                           	opt stack 0
  2751                           tosu	equ	0xFFF
  2752                           tosh	equ	0xFFE
  2753                           tosl	equ	0xFFD
  2754                           pclath	equ	0xFFA
  2755                           tblptru	equ	0xFF8
  2756                           tblptrh	equ	0xFF7
  2757                           tblptrl	equ	0xFF6
  2758                           tablat	equ	0xFF5
  2759                           prodl	equ	0xFF3
  2760                           intcon	equ	0xFF2
  2761                           postinc0	equ	0xFEE
  2762                           wreg	equ	0xFE8
  2763                           postinc2	equ	0xFDE
  2764                           postdec2	equ	0xFDD
  2765                           fsr2h	equ	0xFDA
  2766                           fsr2l	equ	0xFD9
  2767                           status	equ	0xFD8
  2768                           
  2769 ;; *************** function _ResumeMotor *****************
  2770 ;; Defined at:
  2771 ;;		line 55 in file "stall_detection.c"
  2772 ;; Parameters:    Size  Location     Type
  2773 ;;		None
  2774 ;; Auto vars:     Size  Location     Type
  2775 ;;		None
  2776 ;; Return value:  Size  Location     Type
  2777 ;;                  1    wreg      void 
  2778 ;; Registers used:
  2779 ;;		wreg, fsr2l, fsr2h, status,2, status,0, cstack
  2780 ;; Tracked objects:
  2781 ;;		On entry : 0/0
  2782 ;;		On exit  : 30/0
  2783 ;;		Unchanged: 0/0
  2784 ;; Data sizes:     COMRAM   BANK0   BANK1   BANK2   BANK3   BANK4   BANK5   BANK6   BANK7   BANK8   BANK9  BANK10  BANK1
      +1  BANK12  BANK14
  2785 ;;      Params:         0       0       0       0       0       0       0       0       0       0       0       0       
      +0       0       0
  2786 ;;      Locals:         0       0       0       0       0       0       0       0       0       0       0       0       
      +0       0       0
  2787 ;;      Temps:          0       0       0       0       0       0       0       0       0       0       0       0       
      +0       0       0
  2788 ;;      Totals:         0       0       0       0       0       0       0       0       0       0       0       0       
      +0       0       0
  2789 ;;Total ram usage:        0 bytes
  2790 ;; Hardware stack levels used:    1
  2791 ;; Hardware stack levels required when called:   10
  2792 ;; This function calls:
  2793 ;;		_CompareLoadValue
  2794 ;;		_ExpectedRippleCountRemainingAngle
  2795 ;;		_ExpectedRippleCountToHome
  2796 ;;		_Reverse_Dir
  2797 ;; This function is called by:
  2798 ;;		_main
  2799 ;; This function uses a non-reentrant model
  2800 ;;
  2801                           
  2802                           	psect	text17
  2803  001E52                     __ptext17:
  2804                           	opt stack 0
  2805  001E52                     _ResumeMotor:
  2806                           	opt stack 20
  2807                           
  2808                           ; BSR set to: 15
  2809                           ;incstack = 0
  2810                           ;stall_detection.c: 57: do { LATAbits.LATA6 = 0; } while(0);
  2811  001E52  9C82               	bcf	3970,6,c	;volatile
  2812                           
  2813                           ;stall_detection.c: 59: if(reverseOrigin)
  2814  001E54  505B               	movf	_reverseOrigin,w,c
  2815  001E56  E003               	bz	l4246
  2816                           
  2817                           ;stall_detection.c: 60: {
  2818                           ;stall_detection.c: 61: ExpectedRippleCountRemainingAngle();
  2819  001E58  EC37  F00D         	call	_ExpectedRippleCountRemainingAngle	;wreg free
  2820                           
  2821                           ;stall_detection.c: 62: }
  2822  001E5C  D002               	goto	l4248
  2823  001E5E                     l4246:
  2824                           
  2825                           ;stall_detection.c: 64: else
  2826                           ;stall_detection.c: 65: {
  2827                           ;stall_detection.c: 66: ExpectedRippleCountToHome();
  2828  001E5E  ECB4  F00B         	call	_ExpectedRippleCountToHome	;wreg free
  2829  001E62                     l4248:
  2830                           
  2831                           ;stall_detection.c: 67: }
  2832                           ;stall_detection.c: 69: CompareLoadValue();
  2833  001E62  EC66  F00E         	call	_CompareLoadValue	;wreg free
  2834                           
  2835                           ; BSR set to: 0
  2836                           ;stall_detection.c: 70: inputSet = 1;
  2837  001E66  0E01               	movlw	1
  2838  001E68  6F75               	movwf	_inputSet& (0+255),b
  2839                           
  2840                           ; BSR set to: 0
  2841                           ;stall_detection.c: 71: Reverse_Dir();
  2842  001E6A  EFA8  F00E         	goto	_Reverse_Dir	;wreg free
  2843  001E6E                     __end_of_ResumeMotor:
  2844                           	opt stack 0
  2845                           tosu	equ	0xFFF
  2846                           tosh	equ	0xFFE
  2847                           tosl	equ	0xFFD
  2848                           pclath	equ	0xFFA
  2849                           tblptru	equ	0xFF8
  2850                           tblptrh	equ	0xFF7
  2851                           tblptrl	equ	0xFF6
  2852                           tablat	equ	0xFF5
  2853                           prodl	equ	0xFF3
  2854                           intcon	equ	0xFF2
  2855                           postinc0	equ	0xFEE
  2856                           wreg	equ	0xFE8
  2857                           postinc2	equ	0xFDE
  2858                           postdec2	equ	0xFDD
  2859                           fsr2h	equ	0xFDA
  2860                           fsr2l	equ	0xFD9
  2861                           status	equ	0xFD8
  2862                           
  2863 ;; *************** function _ReadMotorPositionFromEEPROM *****************
  2864 ;; Defined at:
  2865 ;;		line 98 in file "position_retention.c"
  2866 ;; Parameters:    Size  Location     Type
  2867 ;;		None
  2868 ;; Auto vars:     Size  Location     Type
  2869 ;;  actualPositi    2   29[COMRAM] unsigned int 
  2870 ;;  readByteMSB     2   26[COMRAM] unsigned int 
  2871 ;;  readByteLSB     1   28[COMRAM] unsigned char 
  2872 ;; Return value:  Size  Location     Type
  2873 ;;                  1    wreg      void 
  2874 ;; Registers used:
  2875 ;;		wreg, fsr2l, fsr2h, status,2, status,0, tblptrl, tblptrh, tblptru, prodl, prodh, cstack
  2876 ;; Tracked objects:
  2877 ;;		On entry : 0/F
  2878 ;;		On exit  : 0/0
  2879 ;;		Unchanged: 0/0
  2880 ;; Data sizes:     COMRAM   BANK0   BANK1   BANK2   BANK3   BANK4   BANK5   BANK6   BANK7   BANK8   BANK9  BANK10  BANK1
      +1  BANK12  BANK14
  2881 ;;      Params:         0       0       0       0       0       0       0       0       0       0       0       0       
      +0       0       0
  2882 ;;      Locals:         5       0       0       0       0       0       0       0       0       0       0       0       
      +0       0       0
  2883 ;;      Temps:          2       0       0       0       0       0       0       0       0       0       0       0       
      +0       0       0
  2884 ;;      Totals:         7       0       0       0       0       0       0       0       0       0       0       0       
      +0       0       0
  2885 ;;Total ram usage:        7 bytes
  2886 ;; Hardware stack levels used:    1
  2887 ;; Hardware stack levels required when called:    8
  2888 ;; This function calls:
  2889 ;;		_DATAEE_ReadByte
  2890 ;;		_printf
  2891 ;; This function is called by:
  2892 ;;		_main
  2893 ;; This function uses a non-reentrant model
  2894 ;;
  2895                           
  2896                           	psect	text18
  2897  001A2E                     __ptext18:
  2898                           	opt stack 0
  2899  001A2E                     _ReadMotorPositionFromEEPROM:
  2900                           	opt stack 22
  2901                           
  2902                           ;position_retention.c: 100: uint16_t readByteMSB = DATAEE_ReadByte(0x3100F2);
  2903                           
  2904                           ;incstack = 0
  2905  001A2E  0EF2               	movlw	242
  2906  001A30  EC7F  F00F         	call	_DATAEE_ReadByte
  2907  001A34  6E1B               	movwf	ReadMotorPositionFromEEPROM@readByteMSB,c
  2908  001A36  6A1C               	clrf	ReadMotorPositionFromEEPROM@readByteMSB+1,c
  2909                           
  2910                           ;position_retention.c: 101: uint8_t readByteLSB = DATAEE_ReadByte(0x3100F0);
  2911  001A38  0EF0               	movlw	240
  2912  001A3A  EC7F  F00F         	call	_DATAEE_ReadByte
  2913  001A3E  6E1D               	movwf	ReadMotorPositionFromEEPROM@readByteLSB,c
  2914                           
  2915                           ;position_retention.c: 102: uint16_t actualPosition = (readByteMSB << 8) + readByteLSB;
  2916  001A40  501B               	movf	ReadMotorPositionFromEEPROM@readByteMSB,w,c
  2917  001A42  6E19               	movwf	??_ReadMotorPositionFromEEPROM& (0+255),c
  2918  001A44  501D               	movf	ReadMotorPositionFromEEPROM@readByteLSB,w,c
  2919  001A46  6E1E               	movwf	ReadMotorPositionFromEEPROM@actualPosition,c
  2920  001A48  C019  F01F         	movff	??_ReadMotorPositionFromEEPROM,ReadMotorPositionFromEEPROM@actualPosition+1
  2921                           
  2922                           ;position_retention.c: 104: if (actualPosition < 0xFFFF)
  2923  001A4C  281E               	incf	ReadMotorPositionFromEEPROM@actualPosition,w,c
  2924  001A4E  E103               	bnz	u2020
  2925  001A50  281F               	incf	ReadMotorPositionFromEEPROM@actualPosition+1,w,c
  2926  001A52  B4D8               	btfsc	status,2,c
  2927  001A54  0012               	return	
  2928  001A56                     u2020:
  2929                           
  2930                           ;position_retention.c: 105: {
  2931                           ;position_retention.c: 106: totalAngleTurned = actualPosition;
  2932  001A56  C01E  F059         	movff	ReadMotorPositionFromEEPROM@actualPosition,_totalAngleTurned
  2933  001A5A  C01F  F05A         	movff	ReadMotorPositionFromEEPROM@actualPosition+1,_totalAngleTurned+1
  2934                           
  2935                           ;position_retention.c: 107: printf("actualPosition = %d \n\r", actualPosition);
  2936  001A5E  0E3E               	movlw	low STR_5
  2937  001A60  6E0F               	movwf	printf@f,c
  2938  001A62  C01E  F010         	movff	ReadMotorPositionFromEEPROM@actualPosition,?_printf+1
  2939  001A66  C01F  F011         	movff	ReadMotorPositionFromEEPROM@actualPosition+1,?_printf+2
  2940  001A6A  EF5C  F008         	goto	_printf	;wreg free
  2941  001A6E                     __end_of_ReadMotorPositionFromEEPROM:
  2942                           	opt stack 0
  2943                           tosu	equ	0xFFF
  2944                           tosh	equ	0xFFE
  2945                           tosl	equ	0xFFD
  2946                           pclath	equ	0xFFA
  2947                           tblptru	equ	0xFF8
  2948                           tblptrh	equ	0xFF7
  2949                           tblptrl	equ	0xFF6
  2950                           tablat	equ	0xFF5
  2951                           prodl	equ	0xFF3
  2952                           intcon	equ	0xFF2
  2953                           postinc0	equ	0xFEE
  2954                           wreg	equ	0xFE8
  2955                           postinc2	equ	0xFDE
  2956                           postdec2	equ	0xFDD
  2957                           fsr2h	equ	0xFDA
  2958                           fsr2l	equ	0xFD9
  2959                           status	equ	0xFD8
  2960                           
  2961 ;; *************** function _DATAEE_ReadByte *****************
  2962 ;; Defined at:
  2963 ;;		line 244 in file "mcc_generated_files/memory.c"
  2964 ;; Parameters:    Size  Location     Type
  2965 ;;  bAdd            1    wreg     unsigned char 
  2966 ;; Auto vars:     Size  Location     Type
  2967 ;;  bAdd            1    2[COMRAM] unsigned char 
  2968 ;; Return value:  Size  Location     Type
  2969 ;;                  1    wreg      unsigned char 
  2970 ;; Registers used:
  2971 ;;		wreg, status,2
  2972 ;; Tracked objects:
  2973 ;;		On entry : 0/F
  2974 ;;		On exit  : 0/0
  2975 ;;		Unchanged: 0/0
  2976 ;; Data sizes:     COMRAM   BANK0   BANK1   BANK2   BANK3   BANK4   BANK5   BANK6   BANK7   BANK8   BANK9  BANK10  BANK1
      +1  BANK12  BANK14
  2977 ;;      Params:         0       0       0       0       0       0       0       0       0       0       0       0       
      +0       0       0
  2978 ;;      Locals:         1       0       0       0       0       0       0       0       0       0       0       0       
      +0       0       0
  2979 ;;      Temps:          0       0       0       0       0       0       0       0       0       0       0       0       
      +0       0       0
  2980 ;;      Totals:         1       0       0       0       0       0       0       0       0       0       0       0       
      +0       0       0
  2981 ;;Total ram usage:        1 bytes
  2982 ;; Hardware stack levels used:    1
  2983 ;; Hardware stack levels required when called:    5
  2984 ;; This function calls:
  2985 ;;		Nothing
  2986 ;; This function is called by:
  2987 ;;		_ReadMotorPositionFromEEPROM
  2988 ;; This function uses a non-reentrant model
  2989 ;;
  2990                           
  2991                           	psect	text19
  2992  001EFE                     __ptext19:
  2993                           	opt stack 0
  2994  001EFE                     _DATAEE_ReadByte:
  2995                           	opt stack 24
  2996                           
  2997                           ;incstack = 0
  2998                           ;DATAEE_ReadByte@bAdd stored from wreg
  2999  001EFE  6E03               	movwf	DATAEE_ReadByte@bAdd,c
  3000                           
  3001                           ;memory.c: 247: NVMADRL = (uint8_t)(bAdd & 0xFF);
  3002  001F00  C003  FF79         	movff	DATAEE_ReadByte@bAdd,3961	;volatile
  3003                           
  3004                           ;memory.c: 248: NVMADRH = 0x00;
  3005  001F04  6A7A               	clrf	3962,c	;volatile
  3006                           
  3007                           ;memory.c: 249: NVMADRU = 0x31;
  3008  001F06  0E31               	movlw	49
  3009  001F08  6E7B               	movwf	3963,c	;volatile
  3010                           
  3011                           ;memory.c: 251: NVMCON1bits.RD = 1;
  3012  001F0A  8080               	bsf	3968,0,c	;volsfr
  3013                           
  3014                           ;memory.c: 252: __nop();
  3015  001F0C  F000               	nop	
  3016                           
  3017                           ;memory.c: 253: __nop();
  3018  001F0E  F000               	nop	
  3019                           
  3020                           ;memory.c: 255: return (NVMDATL);
  3021  001F10  507C               	movf	3964,w,c	;volatile
  3022  001F12  0012               	return		;funcret
  3023  001F14                     __end_of_DATAEE_ReadByte:
  3024                           	opt stack 0
  3025                           tosu	equ	0xFFF
  3026                           tosh	equ	0xFFE
  3027                           tosl	equ	0xFFD
  3028                           pclath	equ	0xFFA
  3029                           tblptru	equ	0xFF8
  3030                           tblptrh	equ	0xFF7
  3031                           tblptrl	equ	0xFF6
  3032                           tablat	equ	0xFF5
  3033                           prodl	equ	0xFF3
  3034                           intcon	equ	0xFF2
  3035                           postinc0	equ	0xFEE
  3036                           wreg	equ	0xFE8
  3037                           postinc2	equ	0xFDE
  3038                           postdec2	equ	0xFDD
  3039                           fsr2h	equ	0xFDA
  3040                           fsr2l	equ	0xFD9
  3041                           status	equ	0xFD8
  3042                           
  3043 ;; *************** function _ReadInput *****************
  3044 ;; Defined at:
  3045 ;;		line 49 in file "counting_ripples.c"
  3046 ;; Parameters:    Size  Location     Type
  3047 ;;		None
  3048 ;; Auto vars:     Size  Location     Type
  3049 ;;		None
  3050 ;; Return value:  Size  Location     Type
  3051 ;;                  1    wreg      void 
  3052 ;; Registers used:
  3053 ;;		wreg, fsr2l, fsr2h, status,2, status,0, cstack
  3054 ;; Tracked objects:
  3055 ;;		On entry : 0/F
  3056 ;;		On exit  : 3F/0
  3057 ;;		Unchanged: 0/0
  3058 ;; Data sizes:     COMRAM   BANK0   BANK1   BANK2   BANK3   BANK4   BANK5   BANK6   BANK7   BANK8   BANK9  BANK10  BANK1
      +1  BANK12  BANK14
  3059 ;;      Params:         0       0       0       0       0       0       0       0       0       0       0       0       
      +0       0       0
  3060 ;;      Locals:         0       3       0       0       0       0       0       0       0       0       0       0       
      +0       0       0
  3061 ;;      Temps:          0       0       0       0       0       0       0       0       0       0       0       0       
      +0       0       0
  3062 ;;      Totals:         0       3       0       0       0       0       0       0       0       0       0       0       
      +0       0       0
  3063 ;;Total ram usage:        3 bytes
  3064 ;; Hardware stack levels used:    1
  3065 ;; Hardware stack levels required when called:   10
  3066 ;; This function calls:
  3067 ;;		_CompareLoadValue
  3068 ;;		_ExpectedRippleCountRemainingAngle
  3069 ;;		___ftmul
  3070 ;;		___fttol
  3071 ;;		___lwtoft
  3072 ;;		_round
  3073 ;; This function is called by:
  3074 ;;		_main
  3075 ;; This function uses a non-reentrant model
  3076 ;;
  3077                           
  3078                           	psect	text20
  3079  0017D8                     __ptext20:
  3080                           	opt stack 0
  3081  0017D8                     _ReadInput:
  3082                           	opt stack 20
  3083                           
  3084                           ;counting_ripples.c: 51: angleDesired = 180;
  3085                           
  3086                           ;incstack = 0
  3087  0017D8  0100               	movlb	0	; () banked
  3088  0017DA  6B6B               	clrf	(_angleDesired+1)& (0+255),b
  3089  0017DC  0EB4               	movlw	180
  3090  0017DE  6F6A               	movwf	_angleDesired& (0+255),b
  3091                           
  3092                           ; BSR set to: 0
  3093                           ;counting_ripples.c: 54: if((angleDesired <= remainingAngle ) || (remainingAngle == 0))
  3094  0017E0  D82C               	call	PL46	;call to abstracted procedure
  3095  0017E2  E203               	bc	u2910
  3096                           
  3097                           ; BSR set to: 0
  3098  0017E4  5181               	movf	_remainingAngle& (0+255),w,b
  3099  0017E6  1182               	iorwf	(_remainingAngle+1)& (0+255),w,b
  3100  0017E8  E11F               	bnz	l4170
  3101  0017EA                     u2910:
  3102                           
  3103                           ; BSR set to: 0
  3104                           ;counting_ripples.c: 55: {
  3105                           ;counting_ripples.c: 56: expectedRippleCount = angleDesired * round(((float)(1*250* 3)/1
      +                          80));
  3106  0017EA  EC3D  F00A         	call	PL2	;call to abstracted procedure
  3107  0017EE  ECC8  F00A         	call	_round	;wreg free
  3108  0017F2  ECE0  F00B         	call	PL6	;call to abstracted procedure
  3109  0017F6  ECC3  F00A         	call	PL40	;call to abstracted procedure
  3110  0017FA  ECCC  F00E         	call	___lwtoft	;wreg free
  3111  0017FE  ECD9  F00B         	call	PL4	;call to abstracted procedure
  3112  001802  ECD4  F008         	call	___ftmul	;wreg free
  3113  001806  C047  F07C         	movff	?___ftmul,_ReadInput$3519
  3114  00180A  C048  F07D         	movff	?___ftmul+1,_ReadInput$3519+1
  3115  00180E  C049  F07E         	movff	?___ftmul+2,_ReadInput$3519+2
  3116                           
  3117                           ;counting_ripples.c: 55: {
  3118                           ;counting_ripples.c: 56: expectedRippleCount = angleDesired * round(((float)(1*250* 3)/1
      +                          80));
  3119  001812  C07C  F01A         	movff	_ReadInput$3519,___fttol@f1
  3120  001816  C07D  F01B         	movff	_ReadInput$3519+1,___fttol@f1+1
  3121  00181A  C07E  F01C         	movff	_ReadInput$3519+2,___fttol@f1+2
  3122  00181E  EC38  F009         	call	___fttol	;wreg free
  3123  001822  ECE7  F00B         	call	PL14	;call to abstracted procedure
  3124                           
  3125                           ;counting_ripples.c: 57: }
  3126  001826  D004               	goto	l4174
  3127  001828                     l4170:
  3128                           
  3129                           ; BSR set to: 0
  3130                           ;counting_ripples.c: 58: else if(angleDesired > remainingAngle)
  3131  001828  D808               	call	PL46	;call to abstracted procedure
  3132  00182A  E202               	bc	l4174
  3133                           
  3134                           ; BSR set to: 0
  3135                           ;counting_ripples.c: 59: {
  3136                           ;counting_ripples.c: 60: ExpectedRippleCountRemainingAngle();
  3137  00182C  EC37  F00D         	call	_ExpectedRippleCountRemainingAngle	;wreg free
  3138  001830                     l4174:
  3139                           
  3140                           ;counting_ripples.c: 61: }
  3141                           ;counting_ripples.c: 62: CompareLoadValue();
  3142  001830  EC66  F00E         	call	_CompareLoadValue	;wreg free
  3143                           
  3144                           ; BSR set to: 0
  3145                           ;counting_ripples.c: 63: inputSet = 1;
  3146  001834  0E01               	movlw	1
  3147  001836  6F75               	movwf	_inputSet& (0+255),b
  3148                           
  3149                           ; BSR set to: 0
  3150  001838  0C01               	retlw	1	;funcret
  3151  00183A                     __end_of_ReadInput:
  3152                           	opt stack 0
  3153  00183A                     PL46:
  3154                           	opt stack 20
  3155  00183A  516A               	movf	_angleDesired& (0+255),w,b
  3156  00183C  5D81               	subwf	_remainingAngle& (0+255),w,b
  3157  00183E  516B               	movf	(_angleDesired+1)& (0+255),w,b
  3158  001840  5982               	subwfb	(_remainingAngle+1)& (0+255),w,b
  3159  001842  0012               	return	
  3160  001844                     __end_ofPL46:
  3161                           	opt stack 0
  3162                           tosu	equ	0xFFF
  3163                           tosh	equ	0xFFE
  3164                           tosl	equ	0xFFD
  3165                           pclath	equ	0xFFA
  3166                           tblptru	equ	0xFF8
  3167                           tblptrh	equ	0xFF7
  3168                           tblptrl	equ	0xFF6
  3169                           tablat	equ	0xFF5
  3170                           prodl	equ	0xFF3
  3171                           intcon	equ	0xFF2
  3172                           postinc0	equ	0xFEE
  3173                           wreg	equ	0xFE8
  3174                           postinc2	equ	0xFDE
  3175                           postdec2	equ	0xFDD
  3176                           fsr2h	equ	0xFDA
  3177                           fsr2l	equ	0xFD9
  3178                           status	equ	0xFD8
  3179                           
  3180 ;; *************** function _MotorPosition *****************
  3181 ;; Defined at:
  3182 ;;		line 111 in file "position_retention.c"
  3183 ;; Parameters:    Size  Location     Type
  3184 ;;		None
  3185 ;; Auto vars:     Size  Location     Type
  3186 ;;		None
  3187 ;; Return value:  Size  Location     Type
  3188 ;;                  1    wreg      void 
  3189 ;; Registers used:
  3190 ;;		wreg, fsr2l, fsr2h, status,2, status,0, tblptrl, tblptrh, tblptru, prodl, prodh, cstack
  3191 ;; Tracked objects:
  3192 ;;		On entry : 0/0
  3193 ;;		On exit  : 0/0
  3194 ;;		Unchanged: 0/0
  3195 ;; Data sizes:     COMRAM   BANK0   BANK1   BANK2   BANK3   BANK4   BANK5   BANK6   BANK7   BANK8   BANK9  BANK10  BANK1
      +1  BANK12  BANK14
  3196 ;;      Params:         0       0       0       0       0       0       0       0       0       0       0       0       
      +0       0       0
  3197 ;;      Locals:         0       0       0       0       0       0       0       0       0       0       0       0       
      +0       0       0
  3198 ;;      Temps:          0       0       0       0       0       0       0       0       0       0       0       0       
      +0       0       0
  3199 ;;      Totals:         0       0       0       0       0       0       0       0       0       0       0       0       
      +0       0       0
  3200 ;;Total ram usage:        0 bytes
  3201 ;; Hardware stack levels used:    1
  3202 ;; Hardware stack levels required when called:    9
  3203 ;; This function calls:
  3204 ;;		_ForwardPosition
  3205 ;;		_ReversePosition
  3206 ;; This function is called by:
  3207 ;;		_main
  3208 ;; This function uses a non-reentrant model
  3209 ;;
  3210                           
  3211                           	psect	text21
  3212  001EA2                     __ptext21:
  3213                           	opt stack 0
  3214  001EA2                     _MotorPosition:
  3215                           	opt stack 21
  3216                           
  3217                           ;position_retention.c: 113: if(forwardDirection)
  3218                           
  3219                           ; BSR set to: 0
  3220                           ;incstack = 0
  3221  001EA2  0100               	movlb	0	; () banked
  3222  001EA4  5173               	movf	_forwardDirection& (0+255),w,b
  3223  001EA6  E003               	bz	l3774
  3224                           
  3225                           ; BSR set to: 0
  3226                           ;position_retention.c: 114: {
  3227                           ;position_retention.c: 115: forwardDirection = 0;
  3228  001EA8  6B73               	clrf	_forwardDirection& (0+255),b
  3229                           
  3230                           ; BSR set to: 0
  3231                           ;position_retention.c: 116: ForwardPosition();
  3232  001EAA  EFF4  F00C         	goto	_ForwardPosition	;wreg free
  3233  001EAE                     l3774:
  3234                           
  3235                           ; BSR set to: 0
  3236                           ;position_retention.c: 119: else if(reverseDirection)
  3237  001EAE  5172               	movf	_reverseDirection& (0+255),w,b
  3238  001EB0  B4D8               	btfsc	status,2,c
  3239  001EB2  0012               	return	
  3240                           
  3241                           ; BSR set to: 0
  3242                           ;position_retention.c: 120: {
  3243                           ;position_retention.c: 121: reverseDirection = 0;
  3244  001EB4  6B72               	clrf	_reverseDirection& (0+255),b
  3245                           
  3246                           ; BSR set to: 0
  3247                           ;position_retention.c: 122: ReversePosition();
  3248  001EB6  EF92  F00D         	goto	_ReversePosition	;wreg free
  3249  001EBA                     __end_of_MotorPosition:
  3250                           	opt stack 0
  3251                           tosu	equ	0xFFF
  3252                           tosh	equ	0xFFE
  3253                           tosl	equ	0xFFD
  3254                           pclath	equ	0xFFA
  3255                           tblptru	equ	0xFF8
  3256                           tblptrh	equ	0xFF7
  3257                           tblptrl	equ	0xFF6
  3258                           tablat	equ	0xFF5
  3259                           prodl	equ	0xFF3
  3260                           intcon	equ	0xFF2
  3261                           postinc0	equ	0xFEE
  3262                           wreg	equ	0xFE8
  3263                           postinc2	equ	0xFDE
  3264                           postdec2	equ	0xFDD
  3265                           fsr2h	equ	0xFDA
  3266                           fsr2l	equ	0xFD9
  3267                           status	equ	0xFD8
  3268                           
  3269 ;; *************** function _ReversePosition *****************
  3270 ;; Defined at:
  3271 ;;		line 63 in file "position_retention.c"
  3272 ;; Parameters:    Size  Location     Type
  3273 ;;		None
  3274 ;; Auto vars:     Size  Location     Type
  3275 ;;		None
  3276 ;; Return value:  Size  Location     Type
  3277 ;;                  1    wreg      void 
  3278 ;; Registers used:
  3279 ;;		wreg, fsr2l, fsr2h, status,2, status,0, tblptrl, tblptrh, tblptru, prodl, prodh, cstack
  3280 ;; Tracked objects:
  3281 ;;		On entry : 3F/0
  3282 ;;		On exit  : 0/0
  3283 ;;		Unchanged: 0/0
  3284 ;; Data sizes:     COMRAM   BANK0   BANK1   BANK2   BANK3   BANK4   BANK5   BANK6   BANK7   BANK8   BANK9  BANK10  BANK1
      +1  BANK12  BANK14
  3285 ;;      Params:         0       0       0       0       0       0       0       0       0       0       0       0       
      +0       0       0
  3286 ;;      Locals:         0       0       0       0       0       0       0       0       0       0       0       0       
      +0       0       0
  3287 ;;      Temps:          0       0       0       0       0       0       0       0       0       0       0       0       
      +0       0       0
  3288 ;;      Totals:         0       0       0       0       0       0       0       0       0       0       0       0       
      +0       0       0
  3289 ;;Total ram usage:        0 bytes
  3290 ;; Hardware stack levels used:    1
  3291 ;; Hardware stack levels required when called:    8
  3292 ;; This function calls:
  3293 ;;		_StorePosition
  3294 ;;		_printf
  3295 ;; This function is called by:
  3296 ;;		_MotorPosition
  3297 ;; This function uses a non-reentrant model
  3298 ;;
  3299                           
  3300                           	psect	text22
  3301  001B24                     __ptext22:
  3302                           	opt stack 0
  3303  001B24                     _ReversePosition:
  3304                           	opt stack 21
  3305                           
  3306                           ; BSR set to: 0
  3307                           ;position_retention.c: 65: if (totalAngleTurned > 0)
  3308                           
  3309                           ;incstack = 0
  3310  001B24  5059               	movf	_totalAngleTurned,w,c
  3311  001B26  105A               	iorwf	_totalAngleTurned+1,w,c
  3312  001B28  E00D               	bz	l1160
  3313                           
  3314                           ; BSR set to: 0
  3315                           ;position_retention.c: 66: {
  3316                           ;position_retention.c: 67: totalAngleTurned -= angleTurned;
  3317  001B2A  5168               	movf	_angleTurned& (0+255),w,b
  3318  001B2C  5E59               	subwf	_totalAngleTurned,f,c
  3319  001B2E  5169               	movf	(_angleTurned+1)& (0+255),w,b
  3320  001B30  5A5A               	subwfb	_totalAngleTurned+1,f,c
  3321                           
  3322                           ; BSR set to: 0
  3323                           ;position_retention.c: 68: remainingAngle = totalAngleTurned;
  3324  001B32  C059  F081         	movff	_totalAngleTurned,_remainingAngle
  3325  001B36  C05A  F082         	movff	_totalAngleTurned+1,_remainingAngle+1
  3326                           
  3327                           ;position_retention.c: 70: if(remainingAngle == 0)
  3328  001B3A  5181               	movf	_remainingAngle& (0+255),w,b
  3329  001B3C  1182               	iorwf	(_remainingAngle+1)& (0+255),w,b
  3330  001B3E  E104               	bnz	l3554
  3331                           
  3332                           ; BSR set to: 0
  3333                           
  3334                           ;position_retention.c: 71: {
  3335                           ;position_retention.c: 72: do { LATAbits.LATA5 = 1; } while(0);
  3336  001B40  8A82               	bsf	3970,5,c	;volatile
  3337  001B42  D002               	goto	l3554
  3338  001B44                     l1160:
  3339                           
  3340                           ; BSR set to: 0
  3341  001B44  010F               	movlb	15	; () banked
  3342  001B46  8F41               	bsf	65,7,b	;volatile
  3343  001B48                     l3554:
  3344                           
  3345                           ;position_retention.c: 83: reverseOrigin = 1;
  3346  001B48  0E01               	movlw	1
  3347  001B4A  6E5B               	movwf	_reverseOrigin,c
  3348  001B4C  9882               	bcf	3970,4,c	;volatile
  3349                           
  3350                           ;position_retention.c: 86: printf("totalangleTurned =%d \n\r", totalAngleTurned);
  3351  001B4E  EC10  F00D         	call	PL22	;call to abstracted procedure
  3352  001B52  EC5C  F008         	call	_printf	;wreg free
  3353                           
  3354                           ;position_retention.c: 87: StorePosition();
  3355  001B56  EF37  F00F         	goto	_StorePosition	;wreg free
  3356  001B5A                     __end_of_ReversePosition:
  3357                           	opt stack 0
  3358                           tosu	equ	0xFFF
  3359                           tosh	equ	0xFFE
  3360                           tosl	equ	0xFFD
  3361                           pclath	equ	0xFFA
  3362                           tblptru	equ	0xFF8
  3363                           tblptrh	equ	0xFF7
  3364                           tblptrl	equ	0xFF6
  3365                           tablat	equ	0xFF5
  3366                           prodl	equ	0xFF3
  3367                           intcon	equ	0xFF2
  3368                           postinc0	equ	0xFEE
  3369                           wreg	equ	0xFE8
  3370                           postinc2	equ	0xFDE
  3371                           postdec2	equ	0xFDD
  3372                           fsr2h	equ	0xFDA
  3373                           fsr2l	equ	0xFD9
  3374                           status	equ	0xFD8
  3375                           
  3376 ;; *************** function _ForwardPosition *****************
  3377 ;; Defined at:
  3378 ;;		line 37 in file "position_retention.c"
  3379 ;; Parameters:    Size  Location     Type
  3380 ;;		None
  3381 ;; Auto vars:     Size  Location     Type
  3382 ;;		None
  3383 ;; Return value:  Size  Location     Type
  3384 ;;                  1    wreg      void 
  3385 ;; Registers used:
  3386 ;;		wreg, fsr2l, fsr2h, status,2, status,0, tblptrl, tblptrh, tblptru, prodl, prodh, cstack
  3387 ;; Tracked objects:
  3388 ;;		On entry : 3F/0
  3389 ;;		On exit  : 0/0
  3390 ;;		Unchanged: 0/0
  3391 ;; Data sizes:     COMRAM   BANK0   BANK1   BANK2   BANK3   BANK4   BANK5   BANK6   BANK7   BANK8   BANK9  BANK10  BANK1
      +1  BANK12  BANK14
  3392 ;;      Params:         0       0       0       0       0       0       0       0       0       0       0       0       
      +0       0       0
  3393 ;;      Locals:         0       0       0       0       0       0       0       0       0       0       0       0       
      +0       0       0
  3394 ;;      Temps:          0       0       0       0       0       0       0       0       0       0       0       0       
      +0       0       0
  3395 ;;      Totals:         0       0       0       0       0       0       0       0       0       0       0       0       
      +0       0       0
  3396 ;;Total ram usage:        0 bytes
  3397 ;; Hardware stack levels used:    1
  3398 ;; Hardware stack levels required when called:    8
  3399 ;; This function calls:
  3400 ;;		_StorePosition
  3401 ;;		_printf
  3402 ;; This function is called by:
  3403 ;;		_MotorPosition
  3404 ;; This function uses a non-reentrant model
  3405 ;;
  3406                           
  3407                           	psect	text23
  3408  0019E8                     __ptext23:
  3409                           	opt stack 0
  3410  0019E8                     _ForwardPosition:
  3411                           	opt stack 0
  3412                           
  3413                           ; BSR set to: 0
  3414                           ;position_retention.c: 39: if (totalAngleTurned < 360)
  3415                           
  3416                           ;incstack = 0
  3417  0019E8  ECD7  F00D         	call	PL34	;call to abstracted procedure
  3418  0019EC  E210               	bc	l1148
  3419                           
  3420                           ; BSR set to: 0
  3421                           ;position_retention.c: 40: {
  3422                           ;position_retention.c: 41: totalAngleTurned += angleTurned;
  3423  0019EE  5168               	movf	_angleTurned& (0+255),w,b
  3424  0019F0  2659               	addwf	_totalAngleTurned,f,c
  3425  0019F2  5169               	movf	(_angleTurned+1)& (0+255),w,b
  3426  0019F4  225A               	addwfc	_totalAngleTurned+1,f,c
  3427                           
  3428                           ;position_retention.c: 42: remainingAngle = 360 - totalAngleTurned;
  3429  0019F6  5059               	movf	_totalAngleTurned,w,c
  3430  0019F8  0868               	sublw	104
  3431  0019FA  6F81               	movwf	_remainingAngle& (0+255),b
  3432  0019FC  505A               	movf	_totalAngleTurned+1,w,c
  3433  0019FE  A0D8               	btfss	status,0,c
  3434  001A00  2AE8               	incf	wreg,f,c
  3435  001A02  0801               	sublw	1
  3436  001A04  6F82               	movwf	(_remainingAngle+1)& (0+255),b
  3437                           
  3438                           ;position_retention.c: 44: if(remainingAngle == 0)
  3439  001A06  1181               	iorwf	_remainingAngle& (0+255),w,b
  3440  001A08  E104               	bnz	l1147
  3441                           
  3442                           ; BSR set to: 0
  3443                           
  3444                           ;position_retention.c: 45: {
  3445                           ;position_retention.c: 46: do { LATAbits.LATA4 = 1; } while(0);
  3446  001A0A  8882               	bsf	3970,4,c	;volatile
  3447  001A0C  D002               	goto	l1147
  3448  001A0E                     l1148:
  3449                           
  3450                           ; BSR set to: 0
  3451  001A0E  010F               	movlb	15	; () banked
  3452  001A10  8F41               	bsf	65,7,b	;volatile
  3453  001A12                     l1147:
  3454                           
  3455                           ;position_retention.c: 56: reverseOrigin = 0;
  3456  001A12  6A5B               	clrf	_reverseOrigin,c
  3457                           
  3458                           ;position_retention.c: 57: do { LATAbits.LATA5 = 0; } while(0);
  3459  001A14  9A82               	bcf	3970,5,c	;volatile
  3460                           
  3461                           ;position_retention.c: 59: printf("totalangleTurned =%d \n\r", totalAngleTurned);
  3462  001A16  D804               	call	PL22	;call to abstracted procedure
  3463  001A18  EC5C  F008         	call	_printf	;wreg free
  3464                           
  3465                           ;position_retention.c: 60: StorePosition();
  3466  001A1C  EF37  F00F         	goto	_StorePosition	;wreg free
  3467  001A20                     __end_of_ForwardPosition:
  3468                           	opt stack 0
  3469  001A20                     PL22:
  3470                           	opt stack 21
  3471  001A20  0E26               	movlw	low STR_3
  3472  001A22  6E0F               	movwf	printf@f,c
  3473  001A24  C059  F010         	movff	_totalAngleTurned,?_printf+1
  3474  001A28  C05A  F011         	movff	_totalAngleTurned+1,?_printf+2
  3475  001A2C  0012               	return	
  3476  001A2E                     __end_ofPL22:
  3477                           	opt stack 0
  3478                           tosu	equ	0xFFF
  3479                           tosh	equ	0xFFE
  3480                           tosl	equ	0xFFD
  3481                           pclath	equ	0xFFA
  3482                           tblptru	equ	0xFF8
  3483                           tblptrh	equ	0xFF7
  3484                           tblptrl	equ	0xFF6
  3485                           tablat	equ	0xFF5
  3486                           prodl	equ	0xFF3
  3487                           intcon	equ	0xFF2
  3488                           postinc0	equ	0xFEE
  3489                           wreg	equ	0xFE8
  3490                           postinc2	equ	0xFDE
  3491                           postdec2	equ	0xFDD
  3492                           fsr2h	equ	0xFDA
  3493                           fsr2l	equ	0xFD9
  3494                           status	equ	0xFD8
  3495                           
  3496 ;; *************** function _StorePosition *****************
  3497 ;; Defined at:
  3498 ;;		line 90 in file "position_retention.c"
  3499 ;; Parameters:    Size  Location     Type
  3500 ;;		None
  3501 ;; Auto vars:     Size  Location     Type
  3502 ;;  writeByteMSB    1    6[COMRAM] unsigned char 
  3503 ;;  writeByteLSB    1    5[COMRAM] unsigned char 
  3504 ;; Return value:  Size  Location     Type
  3505 ;;                  1    wreg      void 
  3506 ;; Registers used:
  3507 ;;		wreg, status,2, cstack
  3508 ;; Tracked objects:
  3509 ;;		On entry : 0/0
  3510 ;;		On exit  : 0/0
  3511 ;;		Unchanged: 0/0
  3512 ;; Data sizes:     COMRAM   BANK0   BANK1   BANK2   BANK3   BANK4   BANK5   BANK6   BANK7   BANK8   BANK9  BANK10  BANK1
      +1  BANK12  BANK14
  3513 ;;      Params:         0       0       0       0       0       0       0       0       0       0       0       0       
      +0       0       0
  3514 ;;      Locals:         2       0       0       0       0       0       0       0       0       0       0       0       
      +0       0       0
  3515 ;;      Temps:          0       0       0       0       0       0       0       0       0       0       0       0       
      +0       0       0
  3516 ;;      Totals:         2       0       0       0       0       0       0       0       0       0       0       0       
      +0       0       0
  3517 ;;Total ram usage:        2 bytes
  3518 ;; Hardware stack levels used:    1
  3519 ;; Hardware stack levels required when called:    6
  3520 ;; This function calls:
  3521 ;;		_DATAEE_WriteByte
  3522 ;; This function is called by:
  3523 ;;		_ForwardPosition
  3524 ;;		_ReversePosition
  3525 ;; This function uses a non-reentrant model
  3526 ;;
  3527                           
  3528                           	psect	text24
  3529  001E6E                     __ptext24:
  3530                           	opt stack 0
  3531  001E6E                     _StorePosition:
  3532                           	opt stack 22
  3533                           
  3534                           ;position_retention.c: 92: uint8_t writeByteLSB = totalAngleTurned;
  3535                           
  3536                           ;incstack = 0
  3537  001E6E  C059  F006         	movff	_totalAngleTurned,StorePosition@writeByteLSB
  3538                           
  3539                           ;position_retention.c: 93: uint8_t writeByteMSB = totalAngleTurned >> 8;
  3540  001E72  C05A  F007         	movff	_totalAngleTurned+1,StorePosition@writeByteMSB
  3541                           
  3542                           ;position_retention.c: 94: DATAEE_WriteByte(0x3100F0, writeByteLSB);
  3543  001E76  C006  F003         	movff	StorePosition@writeByteLSB,DATAEE_WriteByte@bData
  3544  001E7A  0EF0               	movlw	240
  3545  001E7C  EC76  F00D         	call	_DATAEE_WriteByte
  3546                           
  3547                           ;position_retention.c: 95: DATAEE_WriteByte(0x3100F2, writeByteMSB);
  3548  001E80  C007  F003         	movff	StorePosition@writeByteMSB,DATAEE_WriteByte@bData
  3549  001E84  0EF2               	movlw	242
  3550  001E86  EF76  F00D         	goto	_DATAEE_WriteByte
  3551  001E8A                     __end_of_StorePosition:
  3552                           	opt stack 0
  3553                           tosu	equ	0xFFF
  3554                           tosh	equ	0xFFE
  3555                           tosl	equ	0xFFD
  3556                           pclath	equ	0xFFA
  3557                           tblptru	equ	0xFF8
  3558                           tblptrh	equ	0xFF7
  3559                           tblptrl	equ	0xFF6
  3560                           tablat	equ	0xFF5
  3561                           prodl	equ	0xFF3
  3562                           intcon	equ	0xFF2
  3563                           postinc0	equ	0xFEE
  3564                           wreg	equ	0xFE8
  3565                           postinc2	equ	0xFDE
  3566                           postdec2	equ	0xFDD
  3567                           fsr2h	equ	0xFDA
  3568                           fsr2l	equ	0xFD9
  3569                           status	equ	0xFD8
  3570                           
  3571 ;; *************** function _DATAEE_WriteByte *****************
  3572 ;; Defined at:
  3573 ;;		line 220 in file "mcc_generated_files/memory.c"
  3574 ;; Parameters:    Size  Location     Type
  3575 ;;  bAdd            1    wreg     unsigned char 
  3576 ;;  bData           1    2[COMRAM] unsigned char 
  3577 ;; Auto vars:     Size  Location     Type
  3578 ;;  bAdd            1    3[COMRAM] unsigned char 
  3579 ;;  GIEBitValue     1    4[COMRAM] unsigned char 
  3580 ;; Return value:  Size  Location     Type
  3581 ;;                  1    wreg      void 
  3582 ;; Registers used:
  3583 ;;		wreg, status,2
  3584 ;; Tracked objects:
  3585 ;;		On entry : 0/0
  3586 ;;		On exit  : 0/0
  3587 ;;		Unchanged: 0/0
  3588 ;; Data sizes:     COMRAM   BANK0   BANK1   BANK2   BANK3   BANK4   BANK5   BANK6   BANK7   BANK8   BANK9  BANK10  BANK1
      +1  BANK12  BANK14
  3589 ;;      Params:         1       0       0       0       0       0       0       0       0       0       0       0       
      +0       0       0
  3590 ;;      Locals:         2       0       0       0       0       0       0       0       0       0       0       0       
      +0       0       0
  3591 ;;      Temps:          0       0       0       0       0       0       0       0       0       0       0       0       
      +0       0       0
  3592 ;;      Totals:         3       0       0       0       0       0       0       0       0       0       0       0       
      +0       0       0
  3593 ;;Total ram usage:        3 bytes
  3594 ;; Hardware stack levels used:    1
  3595 ;; Hardware stack levels required when called:    5
  3596 ;; This function calls:
  3597 ;;		Nothing
  3598 ;; This function is called by:
  3599 ;;		_StorePosition
  3600 ;; This function uses a non-reentrant model
  3601 ;;
  3602                           
  3603                           	psect	text25
  3604  001AEC                     __ptext25:
  3605                           	opt stack 0
  3606  001AEC                     _DATAEE_WriteByte:
  3607                           	opt stack 22
  3608                           
  3609                           ;incstack = 0
  3610                           ;DATAEE_WriteByte@bAdd stored from wreg
  3611  001AEC  6E04               	movwf	DATAEE_WriteByte@bAdd,c
  3612                           
  3613                           ;memory.c: 222: uint8_t GIEBitValue = INTCONbits.GIE;
  3614  001AEE  0E00               	movlw	0
  3615  001AF0  BEF2               	btfsc	intcon,7,c	;volatile
  3616  001AF2  0E01               	movlw	1
  3617  001AF4  6E05               	movwf	DATAEE_WriteByte@GIEBitValue,c
  3618                           
  3619                           ;memory.c: 225: NVMADRL = (uint8_t)(bAdd & 0xFF);
  3620  001AF6  C004  FF79         	movff	DATAEE_WriteByte@bAdd,3961	;volatile
  3621                           
  3622                           ;memory.c: 226: NVMADRH = 0x00;
  3623  001AFA  6A7A               	clrf	3962,c	;volatile
  3624                           
  3625                           ;memory.c: 227: NVMADRU = 0x31;
  3626  001AFC  0E31               	movlw	49
  3627  001AFE  6E7B               	movwf	3963,c	;volatile
  3628                           
  3629                           ;memory.c: 230: NVMDATL = (uint8_t)(bData & 0xFF);
  3630  001B00  C003  FF7C         	movff	DATAEE_WriteByte@bData,3964	;volatile
  3631                           
  3632                           ;memory.c: 232: NVMCON0bits.NVMEN = 1;
  3633  001B04  8E7F               	bsf	3967,7,c	;volatile
  3634                           
  3635                           ;memory.c: 233: INTCONbits.GIE = 0;
  3636  001B06  9EF2               	bcf	intcon,7,c	;volatile
  3637                           
  3638                           ;memory.c: 235: NVMCON2 = 0x55;
  3639  001B08  0E55               	movlw	85
  3640  001B0A  6E81               	movwf	3969,c	;volsfr
  3641                           
  3642                           ;memory.c: 236: NVMCON2 = 0xAA;
  3643  001B0C  0EAA               	movlw	170
  3644  001B0E  6E81               	movwf	3969,c	;volsfr
  3645                           
  3646                           ;memory.c: 237: NVMCON1bits.WR = 1;
  3647  001B10  8880               	bsf	3968,4,c	;volsfr
  3648  001B12                     l534:
  3649  001B12  B880               	btfsc	3968,4,c	;volsfr
  3650  001B14  D7FE               	goto	l534
  3651                           
  3652                           ;memory.c: 240: INTCONbits.GIE = GIEBitValue;
  3653  001B16  B005               	btfsc	DATAEE_WriteByte@GIEBitValue,0,c
  3654  001B18  D002               	bra	u1625
  3655  001B1A  9EF2               	bcf	intcon,7,c	;volatile
  3656  001B1C  D001               	bra	u1626
  3657  001B1E                     u1625:
  3658  001B1E  8EF2               	bsf	intcon,7,c	;volatile
  3659  001B20                     u1626:
  3660                           
  3661                           ;memory.c: 241: NVMCON0bits.NVMEN = 0;
  3662  001B20  9E7F               	bcf	3967,7,c	;volatile
  3663  001B22  0012               	return		;funcret
  3664  001B24                     __end_of_DATAEE_WriteByte:
  3665                           	opt stack 0
  3666                           tosu	equ	0xFFF
  3667                           tosh	equ	0xFFE
  3668                           tosl	equ	0xFFD
  3669                           pclath	equ	0xFFA
  3670                           tblptru	equ	0xFF8
  3671                           tblptrh	equ	0xFF7
  3672                           tblptrl	equ	0xFF6
  3673                           tablat	equ	0xFF5
  3674                           prodl	equ	0xFF3
  3675                           intcon	equ	0xFF2
  3676                           postinc0	equ	0xFEE
  3677                           wreg	equ	0xFE8
  3678                           postinc2	equ	0xFDE
  3679                           postdec2	equ	0xFDD
  3680                           fsr2h	equ	0xFDA
  3681                           fsr2l	equ	0xFD9
  3682                           status	equ	0xFD8
  3683                           
  3684 ;; *************** function _GetAngleTurned *****************
  3685 ;; Defined at:
  3686 ;;		line 110 in file "counting_ripples.c"
  3687 ;; Parameters:    Size  Location     Type
  3688 ;;		None
  3689 ;; Auto vars:     Size  Location     Type
  3690 ;;		None
  3691 ;; Return value:  Size  Location     Type
  3692 ;;                  1    wreg      void 
  3693 ;; Registers used:
  3694 ;;		wreg, fsr2l, fsr2h, status,2, status,0, tblptrl, tblptrh, tblptru, prodl, prodh, cstack
  3695 ;; Tracked objects:
  3696 ;;		On entry : 3F/0
  3697 ;;		On exit  : 0/0
  3698 ;;		Unchanged: 0/0
  3699 ;; Data sizes:     COMRAM   BANK0   BANK1   BANK2   BANK3   BANK4   BANK5   BANK6   BANK7   BANK8   BANK9  BANK10  BANK1
      +1  BANK12  BANK14
  3700 ;;      Params:         0       0       0       0       0       0       0       0       0       0       0       0       
      +0       0       0
  3701 ;;      Locals:         3       0       0       0       0       0       0       0       0       0       0       0       
      +0       0       0
  3702 ;;      Temps:          0       0       0       0       0       0       0       0       0       0       0       0       
      +0       0       0
  3703 ;;      Totals:         3       0       0       0       0       0       0       0       0       0       0       0       
      +0       0       0
  3704 ;;Total ram usage:        3 bytes
  3705 ;; Hardware stack levels used:    1
  3706 ;; Hardware stack levels required when called:    9
  3707 ;; This function calls:
  3708 ;;		_TMR1_ReadTimer
  3709 ;;		___ftdiv
  3710 ;;		___fttol
  3711 ;;		___lwtoft
  3712 ;;		_printf
  3713 ;;		_round
  3714 ;; This function is called by:
  3715 ;;		_main
  3716 ;; This function uses a non-reentrant model
  3717 ;;
  3718                           
  3719                           	psect	text26
  3720  0013DE                     __ptext26:
  3721                           	opt stack 0
  3722  0013DE                     _GetAngleTurned:
  3723                           	opt stack 21
  3724                           
  3725                           ; BSR set to: 0
  3726                           ;counting_ripples.c: 112: if(dummy)
  3727                           
  3728                           ;incstack = 0
  3729  0013DE  5171               	movf	_dummy& (0+255),w,b
  3730  0013E0  E008               	bz	l4232
  3731                           
  3732                           ; BSR set to: 0
  3733                           ;counting_ripples.c: 113: {
  3734                           ;counting_ripples.c: 114: dummy = 0;
  3735  0013E2  6B71               	clrf	_dummy& (0+255),b
  3736                           
  3737                           ; BSR set to: 0
  3738                           ;counting_ripples.c: 115: actualRippleCount = ((TMR1_ReadTimer()+ (0xFFFF - 0x7FFF)) << 
      +                          1);
  3739  0013E4  ECDE  F00E         	call	_TMR1_ReadTimer	;wreg free
  3740  0013E8  90D8               	bcf	status,0,c
  3741  0013EA  3403               	rlcf	?_TMR1_ReadTimer,w,c
  3742  0013EC  6F64               	movwf	_actualRippleCount& (0+255),b
  3743  0013EE  3404               	rlcf	?_TMR1_ReadTimer+1,w,c
  3744  0013F0  D00A               	goto	L1
  3745  0013F2                     l4232:
  3746                           
  3747                           ; BSR set to: 0
  3748                           ;counting_ripples.c: 117: else
  3749                           ;counting_ripples.c: 118: {
  3750                           ;counting_ripples.c: 119: actualRippleCount = ((TMR1_ReadTimer()+ (0xFFFF - 0x7FFF)) << 
      +                          1) + 10;
  3751  0013F2  ECDE  F00E         	call	_TMR1_ReadTimer	;wreg free
  3752  0013F6  90D8               	bcf	status,0,c
  3753  0013F8  3603               	rlcf	?_TMR1_ReadTimer,f,c
  3754  0013FA  3604               	rlcf	?_TMR1_ReadTimer+1,f,c
  3755  0013FC  0E0A               	movlw	10
  3756  0013FE  2403               	addwf	?_TMR1_ReadTimer,w,c
  3757  001400  6F64               	movwf	_actualRippleCount& (0+255),b
  3758  001402  0E00               	movlw	0
  3759  001404  2004               	addwfc	?_TMR1_ReadTimer+1,w,c
  3760  001406                     L1:
  3761  001406  6F65               	movwf	(_actualRippleCount+1)& (0+255),b
  3762                           
  3763                           ; BSR set to: 0
  3764                           ;counting_ripples.c: 120: }
  3765                           ;counting_ripples.c: 121: angleTurned = (actualRippleCount / round(((float)(1*250* 3)/18
      +                          0)));
  3766  001408  D838               	call	PL2	;call to abstracted procedure
  3767  00140A  ECC8  F00A         	call	_round	;wreg free
  3768  00140E  C041  F04A         	movff	?_round,___ftdiv@f2
  3769  001412  C042  F04B         	movff	?_round+1,___ftdiv@f2+1
  3770  001416  C043  F04C         	movff	?_round+2,___ftdiv@f2+2
  3771  00141A  C064  F00B         	movff	_actualRippleCount,___lwtoft@c
  3772  00141E  C065  F00C         	movff	_actualRippleCount+1,___lwtoft@c+1
  3773  001422  ECCC  F00E         	call	___lwtoft	;wreg free
  3774  001426  C00B  F047         	movff	?___lwtoft,___ftdiv@f1
  3775  00142A  C00C  F048         	movff	?___lwtoft+1,___ftdiv@f1+1
  3776  00142E  C00D  F049         	movff	?___lwtoft+2,___ftdiv@f1+2
  3777  001432  EC94  F009         	call	___ftdiv	;wreg free
  3778  001436  C047  F056         	movff	?___ftdiv,_GetAngleTurned$3523
  3779  00143A  C048  F057         	movff	?___ftdiv+1,_GetAngleTurned$3523+1
  3780  00143E  C049  F058         	movff	?___ftdiv+2,_GetAngleTurned$3523+2
  3781                           
  3782                           ;counting_ripples.c: 120: }
  3783                           ;counting_ripples.c: 121: angleTurned = (actualRippleCount / round(((float)(1*250* 3)/18
      +                          0)));
  3784  001442  C056  F01A         	movff	_GetAngleTurned$3523,___fttol@f1
  3785  001446  C057  F01B         	movff	_GetAngleTurned$3523+1,___fttol@f1+1
  3786  00144A  C058  F01C         	movff	_GetAngleTurned$3523+2,___fttol@f1+2
  3787  00144E  EC38  F009         	call	___fttol	;wreg free
  3788  001452  C01A  F068         	movff	?___fttol,_angleTurned
  3789  001456  C01B  F069         	movff	?___fttol+1,_angleTurned+1
  3790                           
  3791                           ;counting_ripples.c: 123: printf("actualRippleCount = %d \n\r ", actualRippleCount);
  3792  00145A  0E0B               	movlw	low STR_1
  3793  00145C  6E0F               	movwf	printf@f,c
  3794  00145E  C064  F010         	movff	_actualRippleCount,?_printf+1
  3795  001462  C065  F011         	movff	_actualRippleCount+1,?_printf+2
  3796  001466  EC5C  F008         	call	_printf	;wreg free
  3797                           
  3798                           ;counting_ripples.c: 124: printf( "AngleTurned = %d \n\r", angleTurned);
  3799  00146A  0E55               	movlw	low STR_2
  3800  00146C  6E0F               	movwf	printf@f,c
  3801  00146E  C068  F010         	movff	_angleTurned,?_printf+1
  3802  001472  C069  F011         	movff	_angleTurned+1,?_printf+2
  3803  001476  EF5C  F008         	goto	_printf	;wreg free
  3804  00147A                     __end_of_GetAngleTurned:
  3805                           	opt stack 0
  3806  00147A                     PL2:
  3807                           	opt stack 20
  3808  00147A  0E55               	movlw	85
  3809  00147C  6E41               	movwf	round@x,c
  3810  00147E  0E85               	movlw	133
  3811  001480  6E42               	movwf	round@x+1,c
  3812  001482  0E40               	movlw	64
  3813  001484  6E43               	movwf	round@x+2,c
  3814  001486  0C40               	retlw	64
  3815  001488                     __end_ofPL2:
  3816                           	opt stack 0
  3817                           tosu	equ	0xFFF
  3818                           tosh	equ	0xFFE
  3819                           tosl	equ	0xFFD
  3820                           pclath	equ	0xFFA
  3821                           tblptru	equ	0xFF8
  3822                           tblptrh	equ	0xFF7
  3823                           tblptrl	equ	0xFF6
  3824                           tablat	equ	0xFF5
  3825                           prodl	equ	0xFF3
  3826                           intcon	equ	0xFF2
  3827                           postinc0	equ	0xFEE
  3828                           wreg	equ	0xFE8
  3829                           postinc2	equ	0xFDE
  3830                           postdec2	equ	0xFDD
  3831                           fsr2h	equ	0xFDA
  3832                           fsr2l	equ	0xFD9
  3833                           status	equ	0xFD8
  3834                           
  3835 ;; *************** function _printf *****************
  3836 ;; Defined at:
  3837 ;;		line 464 in file "C:\Program Files (x86)\Microchip\xc8\v1.45\sources\common\doprnt.c"
  3838 ;; Parameters:    Size  Location     Type
  3839 ;;  f               1   14[COMRAM] PTR const unsigned char 
  3840 ;;		 -> STR_5(23), STR_4(24), STR_3(24), STR_2(20), 
  3841 ;;		 -> STR_1(27), 
  3842 ;; Auto vars:     Size  Location     Type
  3843 ;;  tmpval          4    0        struct .
  3844 ;;  cp              3    0        PTR const unsigned char 
  3845 ;;  val             2   21[COMRAM] unsigned int 
  3846 ;;  len             2    0        unsigned int 
  3847 ;;  c               1   23[COMRAM] char 
  3848 ;;  prec            1   20[COMRAM] char 
  3849 ;;  flag            1   19[COMRAM] unsigned char 
  3850 ;;  ap              1   18[COMRAM] PTR void [1]
  3851 ;;		 -> ?_printf(2), 
  3852 ;; Return value:  Size  Location     Type
  3853 ;;                  2   14[COMRAM] int 
  3854 ;; Registers used:
  3855 ;;		wreg, fsr2l, fsr2h, status,2, status,0, tblptrl, tblptrh, tblptru, prodl, prodh, cstack
  3856 ;; Tracked objects:
  3857 ;;		On entry : 0/F
  3858 ;;		On exit  : 0/0
  3859 ;;		Unchanged: 0/0
  3860 ;; Data sizes:     COMRAM   BANK0   BANK1   BANK2   BANK3   BANK4   BANK5   BANK6   BANK7   BANK8   BANK9  BANK10  BANK1
      +1  BANK12  BANK14
  3861 ;;      Params:         3       0       0       0       0       0       0       0       0       0       0       0       
      +0       0       0
  3862 ;;      Locals:         6       0       0       0       0       0       0       0       0       0       0       0       
      +0       0       0
  3863 ;;      Temps:          1       0       0       0       0       0       0       0       0       0       0       0       
      +0       0       0
  3864 ;;      Totals:        10       0       0       0       0       0       0       0       0       0       0       0       
      +0       0       0
  3865 ;;Total ram usage:       10 bytes
  3866 ;; Hardware stack levels used:    1
  3867 ;; Hardware stack levels required when called:    7
  3868 ;; This function calls:
  3869 ;;		___lwdiv
  3870 ;;		___lwmod
  3871 ;;		_putch
  3872 ;; This function is called by:
  3873 ;;		_GetAngleTurned
  3874 ;;		_ForwardPosition
  3875 ;;		_ReversePosition
  3876 ;;		_ReadMotorPositionFromEEPROM
  3877 ;; This function uses a non-reentrant model
  3878 ;;
  3879                           
  3880                           	psect	text27
  3881  0010B8                     __ptext27:
  3882                           	opt stack 0
  3883  0010B8                     _printf:
  3884                           	opt stack 22
  3885                           
  3886                           ;doprnt.c: 466: va_list ap;
  3887                           ;doprnt.c: 499: signed char c;
  3888                           ;doprnt.c: 506: signed char prec;
  3889                           ;doprnt.c: 508: unsigned char flag;
  3890                           ;doprnt.c: 523: union {
  3891                           ;doprnt.c: 524: unsigned long vd;
  3892                           ;doprnt.c: 525: double integ;
  3893                           ;doprnt.c: 526: } tmpval;
  3894                           ;doprnt.c: 528: unsigned int val;
  3895                           ;doprnt.c: 529: unsigned len;
  3896                           ;doprnt.c: 530: const char * cp;
  3897                           ;doprnt.c: 533: *ap = __va_start();
  3898                           
  3899                           ;incstack = 0
  3900  0010B8  0E10               	movlw	low (?_printf+1)
  3901  0010BA  6E13               	movwf	printf@ap,c
  3902                           
  3903                           ;doprnt.c: 536: while(c = *f++) {
  3904  0010BC  D05F               	goto	u1770
  3905  0010BE                     l3240:
  3906                           
  3907                           ;doprnt.c: 538: if(c != '%')
  3908  0010BE  0E25               	movlw	37
  3909  0010C0  1818               	xorwf	printf@c,w,c
  3910  0010C2  E004               	bz	l1355
  3911                           
  3912                           ;doprnt.c: 540: {
  3913                           ;doprnt.c: 541: (putch(c) );
  3914  0010C4  5018               	movf	printf@c,w,c
  3915  0010C6  ECE6  F00F         	call	_putch
  3916                           
  3917                           ;doprnt.c: 542: continue;
  3918  0010CA  D058               	goto	u1770
  3919  0010CC                     l1355:
  3920                           
  3921                           ;doprnt.c: 543: }
  3922                           ;doprnt.c: 548: flag = 0;
  3923  0010CC  6A14               	clrf	printf@flag,c
  3924                           
  3925                           ;doprnt.c: 635: switch(c = *f++) {
  3926  0010CE  2A0F               	incf	printf@f,f,c
  3927  0010D0  040F               	decf	printf@f,w,c
  3928  0010D2  D85A               	call	PL8	;call to abstracted procedure
  3929  0010D4  D864               	call	PL44	;call to abstracted procedure
  3930                           
  3931                           ; Switch size 1, requested type "space"
  3932                           ; Number of cases is 3, Range of values is 0 to 105
  3933                           ; switch strategies available:
  3934                           ; Name         Instructions Cycles
  3935                           ; simple_byte           10     6 (average)
  3936                           ;	Chosen strategy is simple_byte
  3937  0010D6  B4D8               	btfsc	status,2,c
  3938  0010D8  0012               	return	
  3939  0010DA  0A64               	xorlw	100	; case 100
  3940  0010DC  E002               	bz	l3248
  3941  0010DE  0A0D               	xorlw	13	; case 105
  3942  0010E0  E14D               	bnz	u1770
  3943  0010E2                     l3248:
  3944                           
  3945                           ;doprnt.c: 1253: {
  3946                           ;doprnt.c: 1259: val = (int)(*(int *)__va_arg((*(int **)ap), (int)0));
  3947  0010E2  5013               	movf	printf@ap,w,c
  3948  0010E4  6ED9               	movwf	fsr2l,c
  3949  0010E6  6ADA               	clrf	fsr2h,c
  3950  0010E8  CFDE F016          	movff	postinc2,printf@val
  3951  0010EC  CFDD F017          	movff	postdec2,printf@val+1
  3952  0010F0  0E02               	movlw	2
  3953  0010F2  2613               	addwf	printf@ap,f,c
  3954                           
  3955                           ;doprnt.c: 1261: if((int)val < 0) {
  3956  0010F4  AE17               	btfss	printf@val+1,7,c
  3957  0010F6  D006               	goto	l3258
  3958                           
  3959                           ;doprnt.c: 1262: flag |= 0x03;
  3960  0010F8  0E03               	movlw	3
  3961  0010FA  1214               	iorwf	printf@flag,f,c
  3962                           
  3963                           ;doprnt.c: 1263: val = -val;
  3964  0010FC  6C16               	negf	printf@val,c
  3965  0010FE  1E17               	comf	printf@val+1,f,c
  3966  001100  B0D8               	btfsc	status,0,c
  3967  001102  2A17               	incf	printf@val+1,f,c
  3968  001104                     l3258:
  3969                           
  3970                           ;doprnt.c: 1264: }
  3971                           ;doprnt.c: 1266: }
  3972                           ;doprnt.c: 1305: for(c = 1 ; c != sizeof dpowers/sizeof dpowers[0] ; c++)
  3973  001104  0E01               	movlw	1
  3974  001106  6E18               	movwf	printf@c,c
  3975  001108                     l3264:
  3976                           
  3977                           ;doprnt.c: 1306: if(val < dpowers[c])
  3978  001108  5018               	movf	printf@c,w,c
  3979  00110A  D845               	call	PL10	;call to abstracted procedure
  3980  00110C  D83D               	call	PL8	;call to abstracted procedure
  3981  00110E  0009               	tblrd		*+
  3982  001110  50F5               	movf	tablat,w,c
  3983  001112  5C16               	subwf	printf@val,w,c
  3984  001114  0009               	tblrd		*+
  3985  001116  50F5               	movf	tablat,w,c
  3986  001118  5817               	subwfb	printf@val+1,w,c
  3987  00111A  E304               	bnc	u1750
  3988  00111C  2A18               	incf	printf@c,f,c
  3989  00111E  0E05               	movlw	5
  3990  001120  1818               	xorwf	printf@c,w,c
  3991  001122  E1F2               	bnz	l3264
  3992  001124                     u1750:
  3993                           
  3994                           ;doprnt.c: 1422: {
  3995                           ;doprnt.c: 1438: if(flag & 0x03)
  3996  001124  C014  F012         	movff	printf@flag,??_printf
  3997  001128  0E03               	movlw	3
  3998  00112A  1612               	andwf	??_printf,f,c
  3999  00112C  E003               	bz	l3276
  4000                           
  4001                           ;doprnt.c: 1439: (putch('-') );
  4002  00112E  0E2D               	movlw	45
  4003  001130  ECE6  F00F         	call	_putch
  4004  001134                     l3276:
  4005                           
  4006                           ;doprnt.c: 1469: }
  4007                           ;doprnt.c: 1472: prec = c;
  4008  001134  C018  F015         	movff	printf@c,printf@prec
  4009                           
  4010                           ;doprnt.c: 1474: while(prec--) {
  4011  001138  D01E               	goto	l3282
  4012  00113A                     l3278:
  4013                           
  4014                           ;doprnt.c: 1478: {
  4015                           ;doprnt.c: 1489: c = (val / dpowers[prec]) % 10 + '0';
  4016  00113A  5015               	movf	printf@prec,w,c
  4017  00113C  D82C               	call	PL10	;call to abstracted procedure
  4018  00113E  D824               	call	PL8	;call to abstracted procedure
  4019  001140  0009               	tblrd		*+
  4020  001142  CFF5 F005          	movff	tablat,___lwdiv@divisor
  4021  001146  000A               	tblrd		*-
  4022  001148  CFF5 F006          	movff	tablat,___lwdiv@divisor+1
  4023  00114C  C016  F003         	movff	printf@val,___lwdiv@dividend
  4024  001150  C017  F004         	movff	printf@val+1,___lwdiv@dividend+1
  4025  001154  ECCF  F00C         	call	___lwdiv	;wreg free
  4026  001158  C003  F00A         	movff	?___lwdiv,___lwmod@dividend
  4027  00115C  C004  F00B         	movff	?___lwdiv+1,___lwmod@dividend+1
  4028  001160  6A0D               	clrf	___lwmod@divisor+1,c
  4029  001162  0E0A               	movlw	10
  4030  001164  6E0C               	movwf	___lwmod@divisor,c
  4031  001166  EC57  F00D         	call	___lwmod	;wreg free
  4032  00116A  500A               	movf	?___lwmod,w,c
  4033  00116C  0F30               	addlw	48
  4034  00116E  6E18               	movwf	printf@c,c
  4035                           
  4036                           ;doprnt.c: 1523: }
  4037                           ;doprnt.c: 1524: (putch(c) );
  4038  001170  5018               	movf	printf@c,w,c
  4039  001172  ECE6  F00F         	call	_putch
  4040  001176                     l3282:
  4041  001176  0615               	decf	printf@prec,f,c
  4042  001178  2815               	incf	printf@prec,w,c
  4043  00117A  E1DF               	bnz	l3278
  4044  00117C                     u1770:
  4045  00117C  2A0F               	incf	printf@f,f,c
  4046  00117E  040F               	decf	printf@f,w,c
  4047  001180  D803               	call	PL8	;call to abstracted procedure
  4048  001182  D80D               	call	PL44	;call to abstracted procedure
  4049  001184  E19C               	bnz	l3240
  4050  001186  0012               	return		;funcret
  4051  001188                     __end_of_printf:
  4052                           	opt stack 0
  4053  001188                     PL8:
  4054                           	opt stack 22
  4055  001188  6E12               	movwf	??_printf& (0+255),c
  4056  00118A  C012  FFF6         	movff	??_printf,tblptrl
  4057  00118E                     	if	1	;There is more than 1 active tblptr byte
  4058  00118E  0E0F               	movlw	high __smallconst
  4059  001190  6EF7               	movwf	tblptrh,c
  4060  001192                     	endif
  4061  001192                     	if	1	;Program memory is < 0x10000, tblptru is always zero
  4062  001192  6AF8               	clrf	tblptru,c
  4063  001194                     	endif
  4064  001194                     	if	0	;tblptru may be non-zero
  4065  001194                     	endif
  4066  001194  0012               	return	
  4067  001196                     __end_ofPL8:
  4068                           	opt stack 0
  4069  001196                     PL10:
  4070                           	opt stack 22
  4071  001196  0D02               	mullw	2
  4072  001198  50F3               	movf	prodl,w,c
  4073  00119A  0F01               	addlw	low _dpowers
  4074  00119C  0012               	return	
  4075  00119E                     __end_ofPL10:
  4076                           	opt stack 0
  4077  00119E                     PL44:
  4078                           	opt stack 22
  4079  00119E  0008               	tblrd		*
  4080  0011A0  CFF5 F018          	movff	tablat,printf@c
  4081  0011A4  5018               	movf	printf@c,w,c
  4082  0011A6  0012               	return	
  4083  0011A8                     __end_ofPL44:
  4084                           	opt stack 0
  4085                           tosu	equ	0xFFF
  4086                           tosh	equ	0xFFE
  4087                           tosl	equ	0xFFD
  4088                           pclath	equ	0xFFA
  4089                           tblptru	equ	0xFF8
  4090                           tblptrh	equ	0xFF7
  4091                           tblptrl	equ	0xFF6
  4092                           tablat	equ	0xFF5
  4093                           prodl	equ	0xFF3
  4094                           intcon	equ	0xFF2
  4095                           postinc0	equ	0xFEE
  4096                           wreg	equ	0xFE8
  4097                           postinc2	equ	0xFDE
  4098                           postdec2	equ	0xFDD
  4099                           fsr2h	equ	0xFDA
  4100                           fsr2l	equ	0xFD9
  4101                           status	equ	0xFD8
  4102                           
  4103 ;; *************** function _putch *****************
  4104 ;; Defined at:
  4105 ;;		line 125 in file "mcc_generated_files/eusart1.c"
  4106 ;; Parameters:    Size  Location     Type
  4107 ;;  txData          1    wreg     unsigned char 
  4108 ;; Auto vars:     Size  Location     Type
  4109 ;;  txData          1    3[COMRAM] unsigned char 
  4110 ;; Return value:  Size  Location     Type
  4111 ;;                  1    wreg      void 
  4112 ;; Registers used:
  4113 ;;		wreg, status,2, cstack
  4114 ;; Tracked objects:
  4115 ;;		On entry : 0/F
  4116 ;;		On exit  : 3F/E
  4117 ;;		Unchanged: 0/0
  4118 ;; Data sizes:     COMRAM   BANK0   BANK1   BANK2   BANK3   BANK4   BANK5   BANK6   BANK7   BANK8   BANK9  BANK10  BANK1
      +1  BANK12  BANK14
  4119 ;;      Params:         0       0       0       0       0       0       0       0       0       0       0       0       
      +0       0       0
  4120 ;;      Locals:         1       0       0       0       0       0       0       0       0       0       0       0       
      +0       0       0
  4121 ;;      Temps:          0       0       0       0       0       0       0       0       0       0       0       0       
      +0       0       0
  4122 ;;      Totals:         1       0       0       0       0       0       0       0       0       0       0       0       
      +0       0       0
  4123 ;;Total ram usage:        1 bytes
  4124 ;; Hardware stack levels used:    1
  4125 ;; Hardware stack levels required when called:    6
  4126 ;; This function calls:
  4127 ;;		_EUSART1_Write
  4128 ;; This function is called by:
  4129 ;;		_printf
  4130 ;; This function uses a non-reentrant model
  4131 ;;
  4132                           
  4133                           	psect	text28
  4134  001FCC                     __ptext28:
  4135                           	opt stack 0
  4136  001FCC                     _putch:
  4137                           	opt stack 22
  4138                           
  4139                           ;incstack = 0
  4140                           ;putch@txData stored from wreg
  4141  001FCC  6E04               	movwf	putch@txData,c
  4142                           
  4143                           ;eusart1.c: 127: EUSART1_Write(txData);
  4144  001FCE  5004               	movf	putch@txData,w,c
  4145  001FD0  EFC3  F00F         	goto	_EUSART1_Write
  4146  001FD4                     __end_of_putch:
  4147                           	opt stack 0
  4148                           tosu	equ	0xFFF
  4149                           tosh	equ	0xFFE
  4150                           tosl	equ	0xFFD
  4151                           pclath	equ	0xFFA
  4152                           tblptru	equ	0xFF8
  4153                           tblptrh	equ	0xFF7
  4154                           tblptrl	equ	0xFF6
  4155                           tablat	equ	0xFF5
  4156                           prodl	equ	0xFF3
  4157                           intcon	equ	0xFF2
  4158                           postinc0	equ	0xFEE
  4159                           wreg	equ	0xFE8
  4160                           postinc2	equ	0xFDE
  4161                           postdec2	equ	0xFDD
  4162                           fsr2h	equ	0xFDA
  4163                           fsr2l	equ	0xFD9
  4164                           status	equ	0xFD8
  4165                           
  4166 ;; *************** function _EUSART1_Write *****************
  4167 ;; Defined at:
  4168 ;;		line 111 in file "mcc_generated_files/eusart1.c"
  4169 ;; Parameters:    Size  Location     Type
  4170 ;;  txData          1    wreg     unsigned char 
  4171 ;; Auto vars:     Size  Location     Type
  4172 ;;  txData          1    2[COMRAM] unsigned char 
  4173 ;; Return value:  Size  Location     Type
  4174 ;;                  1    wreg      void 
  4175 ;; Registers used:
  4176 ;;		wreg
  4177 ;; Tracked objects:
  4178 ;;		On entry : 0/F
  4179 ;;		On exit  : 3F/E
  4180 ;;		Unchanged: 0/0
  4181 ;; Data sizes:     COMRAM   BANK0   BANK1   BANK2   BANK3   BANK4   BANK5   BANK6   BANK7   BANK8   BANK9  BANK10  BANK1
      +1  BANK12  BANK14
  4182 ;;      Params:         0       0       0       0       0       0       0       0       0       0       0       0       
      +0       0       0
  4183 ;;      Locals:         1       0       0       0       0       0       0       0       0       0       0       0       
      +0       0       0
  4184 ;;      Temps:          0       0       0       0       0       0       0       0       0       0       0       0       
      +0       0       0
  4185 ;;      Totals:         1       0       0       0       0       0       0       0       0       0       0       0       
      +0       0       0
  4186 ;;Total ram usage:        1 bytes
  4187 ;; Hardware stack levels used:    1
  4188 ;; Hardware stack levels required when called:    5
  4189 ;; This function calls:
  4190 ;;		Nothing
  4191 ;; This function is called by:
  4192 ;;		_putch
  4193 ;; This function uses a non-reentrant model
  4194 ;;
  4195                           
  4196                           	psect	text29
  4197  001F86                     __ptext29:
  4198                           	opt stack 0
  4199  001F86                     _EUSART1_Write:
  4200                           	opt stack 22
  4201                           
  4202                           ; BSR set to: 14
  4203                           ;incstack = 0
  4204                           ;EUSART1_Write@txData stored from wreg
  4205  001F86  6E03               	movwf	EUSART1_Write@txData,c
  4206  001F88                     
  4207                           ;eusart1.c: 114: {
  4208  001F88  010E               	movlb	14	; () banked
  4209  001F8A  A9C8               	btfss	200,4,b	;volatile
  4210  001F8C  D7FD               	goto	l2972
  4211                           
  4212                           ; BSR set to: 14
  4213                           ;eusart1.c: 115: }
  4214                           ;eusart1.c: 117: TX1REG = txData;
  4215  001F8E  C003  FF99         	movff	EUSART1_Write@txData,3993	;volatile
  4216                           
  4217                           ; BSR set to: 14
  4218  001F92  0012               	return		;funcret
  4219  001F94                     __end_of_EUSART1_Write:
  4220                           	opt stack 0
  4221                           tosu	equ	0xFFF
  4222                           tosh	equ	0xFFE
  4223                           tosl	equ	0xFFD
  4224                           pclath	equ	0xFFA
  4225                           tblptru	equ	0xFF8
  4226                           tblptrh	equ	0xFF7
  4227                           tblptrl	equ	0xFF6
  4228                           tablat	equ	0xFF5
  4229                           prodl	equ	0xFF3
  4230                           intcon	equ	0xFF2
  4231                           postinc0	equ	0xFEE
  4232                           wreg	equ	0xFE8
  4233                           postinc2	equ	0xFDE
  4234                           postdec2	equ	0xFDD
  4235                           fsr2h	equ	0xFDA
  4236                           fsr2l	equ	0xFD9
  4237                           status	equ	0xFD8
  4238                           
  4239 ;; *************** function ___lwmod *****************
  4240 ;; Defined at:
  4241 ;;		line 8 in file "C:\Program Files (x86)\Microchip\xc8\v1.45\sources\common\lwmod.c"
  4242 ;; Parameters:    Size  Location     Type
  4243 ;;  dividend        2    9[COMRAM] unsigned int 
  4244 ;;  divisor         2   11[COMRAM] unsigned int 
  4245 ;; Auto vars:     Size  Location     Type
  4246 ;;  counter         1   13[COMRAM] unsigned char 
  4247 ;; Return value:  Size  Location     Type
  4248 ;;                  2    9[COMRAM] unsigned int 
  4249 ;; Registers used:
  4250 ;;		wreg, status,2, status,0
  4251 ;; Tracked objects:
  4252 ;;		On entry : 0/F
  4253 ;;		On exit  : 0/0
  4254 ;;		Unchanged: 0/0
  4255 ;; Data sizes:     COMRAM   BANK0   BANK1   BANK2   BANK3   BANK4   BANK5   BANK6   BANK7   BANK8   BANK9  BANK10  BANK1
      +1  BANK12  BANK14
  4256 ;;      Params:         4       0       0       0       0       0       0       0       0       0       0       0       
      +0       0       0
  4257 ;;      Locals:         1       0       0       0       0       0       0       0       0       0       0       0       
      +0       0       0
  4258 ;;      Temps:          0       0       0       0       0       0       0       0       0       0       0       0       
      +0       0       0
  4259 ;;      Totals:         5       0       0       0       0       0       0       0       0       0       0       0       
      +0       0       0
  4260 ;;Total ram usage:        5 bytes
  4261 ;; Hardware stack levels used:    1
  4262 ;; Hardware stack levels required when called:    5
  4263 ;; This function calls:
  4264 ;;		Nothing
  4265 ;; This function is called by:
  4266 ;;		_printf
  4267 ;; This function uses a non-reentrant model
  4268 ;;
  4269                           
  4270                           	psect	text30
  4271  001AAE                     __ptext30:
  4272                           	opt stack 0
  4273  001AAE                     ___lwmod:
  4274                           	opt stack 23
  4275                           
  4276                           ; BSR set to: 14
  4277                           ;incstack = 0
  4278  001AAE  500C               	movf	___lwmod@divisor,w,c
  4279  001AB0  100D               	iorwf	___lwmod@divisor+1,w,c
  4280  001AB2  E017               	bz	l1785
  4281  001AB4  0E01               	movlw	1
  4282  001AB6  6E0E               	movwf	___lwmod@counter,c
  4283  001AB8  D004               	goto	l3186
  4284  001ABA                     l3184:
  4285  001ABA  90D8               	bcf	status,0,c
  4286  001ABC  360C               	rlcf	___lwmod@divisor,f,c
  4287  001ABE  360D               	rlcf	___lwmod@divisor+1,f,c
  4288  001AC0  2A0E               	incf	___lwmod@counter,f,c
  4289  001AC2                     l3186:
  4290  001AC2  AE0D               	btfss	___lwmod@divisor+1,7,c
  4291  001AC4  D7FA               	goto	l3184
  4292  001AC6                     u1680:
  4293  001AC6  500C               	movf	___lwmod@divisor,w,c
  4294  001AC8  5C0A               	subwf	___lwmod@dividend,w,c
  4295  001ACA  500D               	movf	___lwmod@divisor+1,w,c
  4296  001ACC  580B               	subwfb	___lwmod@dividend+1,w,c
  4297  001ACE  E304               	bnc	l3192
  4298  001AD0  500C               	movf	___lwmod@divisor,w,c
  4299  001AD2  5E0A               	subwf	___lwmod@dividend,f,c
  4300  001AD4  500D               	movf	___lwmod@divisor+1,w,c
  4301  001AD6  5A0B               	subwfb	___lwmod@dividend+1,f,c
  4302  001AD8                     l3192:
  4303  001AD8  90D8               	bcf	status,0,c
  4304  001ADA  320D               	rrcf	___lwmod@divisor+1,f,c
  4305  001ADC  320C               	rrcf	___lwmod@divisor,f,c
  4306  001ADE  2E0E               	decfsz	___lwmod@counter,f,c
  4307  001AE0  D7F2               	goto	u1680
  4308  001AE2                     l1785:
  4309  001AE2  C00A  F00A         	movff	___lwmod@dividend,?___lwmod
  4310  001AE6  C00B  F00B         	movff	___lwmod@dividend+1,?___lwmod+1
  4311  001AEA  0012               	return		;funcret
  4312  001AEC                     __end_of___lwmod:
  4313                           	opt stack 0
  4314                           tosu	equ	0xFFF
  4315                           tosh	equ	0xFFE
  4316                           tosl	equ	0xFFD
  4317                           pclath	equ	0xFFA
  4318                           tblptru	equ	0xFF8
  4319                           tblptrh	equ	0xFF7
  4320                           tblptrl	equ	0xFF6
  4321                           tablat	equ	0xFF5
  4322                           prodl	equ	0xFF3
  4323                           intcon	equ	0xFF2
  4324                           postinc0	equ	0xFEE
  4325                           wreg	equ	0xFE8
  4326                           postinc2	equ	0xFDE
  4327                           postdec2	equ	0xFDD
  4328                           fsr2h	equ	0xFDA
  4329                           fsr2l	equ	0xFD9
  4330                           status	equ	0xFD8
  4331                           
  4332 ;; *************** function ___lwdiv *****************
  4333 ;; Defined at:
  4334 ;;		line 8 in file "C:\Program Files (x86)\Microchip\xc8\v1.45\sources\common\lwdiv.c"
  4335 ;; Parameters:    Size  Location     Type
  4336 ;;  dividend        2    2[COMRAM] unsigned int 
  4337 ;;  divisor         2    4[COMRAM] unsigned int 
  4338 ;; Auto vars:     Size  Location     Type
  4339 ;;  quotient        2    6[COMRAM] unsigned int 
  4340 ;;  counter         1    8[COMRAM] unsigned char 
  4341 ;; Return value:  Size  Location     Type
  4342 ;;                  2    2[COMRAM] unsigned int 
  4343 ;; Registers used:
  4344 ;;		wreg, status,2, status,0
  4345 ;; Tracked objects:
  4346 ;;		On entry : 0/F
  4347 ;;		On exit  : 0/0
  4348 ;;		Unchanged: 0/0
  4349 ;; Data sizes:     COMRAM   BANK0   BANK1   BANK2   BANK3   BANK4   BANK5   BANK6   BANK7   BANK8   BANK9  BANK10  BANK1
      +1  BANK12  BANK14
  4350 ;;      Params:         4       0       0       0       0       0       0       0       0       0       0       0       
      +0       0       0
  4351 ;;      Locals:         3       0       0       0       0       0       0       0       0       0       0       0       
      +0       0       0
  4352 ;;      Temps:          0       0       0       0       0       0       0       0       0       0       0       0       
      +0       0       0
  4353 ;;      Totals:         7       0       0       0       0       0       0       0       0       0       0       0       
      +0       0       0
  4354 ;;Total ram usage:        7 bytes
  4355 ;; Hardware stack levels used:    1
  4356 ;; Hardware stack levels required when called:    5
  4357 ;; This function calls:
  4358 ;;		Nothing
  4359 ;; This function is called by:
  4360 ;;		_printf
  4361 ;; This function uses a non-reentrant model
  4362 ;;
  4363                           
  4364                           	psect	text31
  4365  00199E                     __ptext31:
  4366                           	opt stack 0
  4367  00199E                     ___lwdiv:
  4368                           	opt stack 23
  4369                           
  4370                           ;incstack = 0
  4371  00199E  6A07               	clrf	___lwdiv@quotient,c
  4372  0019A0  6A08               	clrf	___lwdiv@quotient+1,c
  4373  0019A2  5005               	movf	___lwdiv@divisor,w,c
  4374  0019A4  1006               	iorwf	___lwdiv@divisor+1,w,c
  4375  0019A6  E01B               	bz	l1775
  4376  0019A8  0E01               	movlw	1
  4377  0019AA  6E09               	movwf	___lwdiv@counter,c
  4378  0019AC  D004               	goto	l3166
  4379  0019AE                     l3164:
  4380  0019AE  90D8               	bcf	status,0,c
  4381  0019B0  3605               	rlcf	___lwdiv@divisor,f,c
  4382  0019B2  3606               	rlcf	___lwdiv@divisor+1,f,c
  4383  0019B4  2A09               	incf	___lwdiv@counter,f,c
  4384  0019B6                     l3166:
  4385  0019B6  AE06               	btfss	___lwdiv@divisor+1,7,c
  4386  0019B8  D7FA               	goto	l3164
  4387  0019BA                     u1650:
  4388  0019BA  90D8               	bcf	status,0,c
  4389  0019BC  3607               	rlcf	___lwdiv@quotient,f,c
  4390  0019BE  3608               	rlcf	___lwdiv@quotient+1,f,c
  4391  0019C0  5005               	movf	___lwdiv@divisor,w,c
  4392  0019C2  5C03               	subwf	___lwdiv@dividend,w,c
  4393  0019C4  5006               	movf	___lwdiv@divisor+1,w,c
  4394  0019C6  5804               	subwfb	___lwdiv@dividend+1,w,c
  4395  0019C8  E305               	bnc	l3176
  4396  0019CA  5005               	movf	___lwdiv@divisor,w,c
  4397  0019CC  5E03               	subwf	___lwdiv@dividend,f,c
  4398  0019CE  5006               	movf	___lwdiv@divisor+1,w,c
  4399  0019D0  5A04               	subwfb	___lwdiv@dividend+1,f,c
  4400  0019D2  8007               	bsf	___lwdiv@quotient,0,c
  4401  0019D4                     l3176:
  4402  0019D4  90D8               	bcf	status,0,c
  4403  0019D6  3206               	rrcf	___lwdiv@divisor+1,f,c
  4404  0019D8  3205               	rrcf	___lwdiv@divisor,f,c
  4405  0019DA  2E09               	decfsz	___lwdiv@counter,f,c
  4406  0019DC  D7EE               	goto	u1650
  4407  0019DE                     l1775:
  4408  0019DE  C007  F003         	movff	___lwdiv@quotient,?___lwdiv
  4409  0019E2  C008  F004         	movff	___lwdiv@quotient+1,?___lwdiv+1
  4410  0019E6  0012               	return		;funcret
  4411  0019E8                     __end_of___lwdiv:
  4412                           	opt stack 0
  4413                           tosu	equ	0xFFF
  4414                           tosh	equ	0xFFE
  4415                           tosl	equ	0xFFD
  4416                           pclath	equ	0xFFA
  4417                           tblptru	equ	0xFF8
  4418                           tblptrh	equ	0xFF7
  4419                           tblptrl	equ	0xFF6
  4420                           tablat	equ	0xFF5
  4421                           prodl	equ	0xFF3
  4422                           intcon	equ	0xFF2
  4423                           postinc0	equ	0xFEE
  4424                           wreg	equ	0xFE8
  4425                           postinc2	equ	0xFDE
  4426                           postdec2	equ	0xFDD
  4427                           fsr2h	equ	0xFDA
  4428                           fsr2l	equ	0xFD9
  4429                           status	equ	0xFD8
  4430                           
  4431 ;; *************** function ___ftdiv *****************
  4432 ;; Defined at:
  4433 ;;		line 54 in file "C:\Program Files (x86)\Microchip\xc8\v1.45\sources\common\ftdiv.c"
  4434 ;; Parameters:    Size  Location     Type
  4435 ;;  f1              3   70[COMRAM] float 
  4436 ;;  f2              3   73[COMRAM] float 
  4437 ;; Auto vars:     Size  Location     Type
  4438 ;;  f3              3   80[COMRAM] float 
  4439 ;;  sign            1   84[COMRAM] unsigned char 
  4440 ;;  exp             1   83[COMRAM] unsigned char 
  4441 ;;  cntr            1   79[COMRAM] unsigned char 
  4442 ;; Return value:  Size  Location     Type
  4443 ;;                  3   70[COMRAM] float 
  4444 ;; Registers used:
  4445 ;;		wreg, status,2, status,0, cstack
  4446 ;; Tracked objects:
  4447 ;;		On entry : 0/0
  4448 ;;		On exit  : 0/0
  4449 ;;		Unchanged: 0/0
  4450 ;; Data sizes:     COMRAM   BANK0   BANK1   BANK2   BANK3   BANK4   BANK5   BANK6   BANK7   BANK8   BANK9  BANK10  BANK1
      +1  BANK12  BANK14
  4451 ;;      Params:         6       0       0       0       0       0       0       0       0       0       0       0       
      +0       0       0
  4452 ;;      Locals:         6       0       0       0       0       0       0       0       0       0       0       0       
      +0       0       0
  4453 ;;      Temps:          3       0       0       0       0       0       0       0       0       0       0       0       
      +0       0       0
  4454 ;;      Totals:        15       0       0       0       0       0       0       0       0       0       0       0       
      +0       0       0
  4455 ;;Total ram usage:       15 bytes
  4456 ;; Hardware stack levels used:    1
  4457 ;; Hardware stack levels required when called:    6
  4458 ;; This function calls:
  4459 ;;		___ftpack
  4460 ;; This function is called by:
  4461 ;;		_GetAngleTurned
  4462 ;; This function uses a non-reentrant model
  4463 ;;
  4464                           
  4465                           	psect	text32
  4466  001328                     __ptext32:
  4467                           	opt stack 0
  4468  001328                     ___ftdiv:
  4469                           	opt stack 23
  4470                           
  4471                           ;incstack = 0
  4472  001328  C049  F04D         	movff	___ftdiv@f1+2,??___ftdiv
  4473  00132C  6A4E               	clrf	(??___ftdiv+1)& (0+255),c
  4474  00132E  6A4F               	clrf	(??___ftdiv+2)& (0+255),c
  4475  001330  3448               	rlcf	___ftdiv@f1+1,w,c
  4476  001332  364D               	rlcf	??___ftdiv& (0+255),f,c
  4477  001334  E301               	bnc	u2851
  4478  001336  804E               	bsf	(??___ftdiv+1)& (0+255),0,c
  4479  001338                     u2851:
  4480  001338  504D               	movf	??___ftdiv,w,c
  4481  00133A  6E54               	movwf	___ftdiv@exp,c
  4482  00133C  5054               	movf	___ftdiv@exp,w,c
  4483  00133E  E101               	bnz	l4128
  4484  001340  D04A               	goto	PL28	;call to abstracted procedure
  4485  001342                     l4128:
  4486  001342  C04C  F04D         	movff	___ftdiv@f2+2,??___ftdiv
  4487  001346  6A4E               	clrf	(??___ftdiv+1)& (0+255),c
  4488  001348  6A4F               	clrf	(??___ftdiv+2)& (0+255),c
  4489  00134A  344B               	rlcf	___ftdiv@f2+1,w,c
  4490  00134C  364D               	rlcf	??___ftdiv& (0+255),f,c
  4491  00134E  E301               	bnc	u2871
  4492  001350  804E               	bsf	(??___ftdiv+1)& (0+255),0,c
  4493  001352                     u2871:
  4494  001352  504D               	movf	??___ftdiv,w,c
  4495  001354  6E55               	movwf	___ftdiv@sign,c
  4496  001356  5055               	movf	___ftdiv@sign,w,c
  4497  001358  E101               	bnz	l1653
  4498  00135A  D03D               	goto	PL28	;call to abstracted procedure
  4499  00135C                     l1653:
  4500  00135C  6A51               	clrf	___ftdiv@f3,c
  4501  00135E  6A52               	clrf	___ftdiv@f3+1,c
  4502  001360  6A53               	clrf	___ftdiv@f3+2,c
  4503  001362  5055               	movf	___ftdiv@sign,w,c
  4504  001364  0F89               	addlw	137
  4505  001366  5E54               	subwf	___ftdiv@exp,f,c
  4506  001368  C049  F055         	movff	___ftdiv@f1+2,___ftdiv@sign
  4507  00136C  504C               	movf	___ftdiv@f2+2,w,c
  4508  00136E  1A55               	xorwf	___ftdiv@sign,f,c
  4509  001370  0E80               	movlw	128
  4510  001372  1655               	andwf	___ftdiv@sign,f,c
  4511  001374  8E48               	bsf	___ftdiv@f1+1,7,c
  4512  001376  6A49               	clrf	___ftdiv@f1+2,c
  4513  001378  8E4B               	bsf	___ftdiv@f2+1,7,c
  4514  00137A  6A4C               	clrf	___ftdiv@f2+2,c
  4515  00137C  0E18               	movlw	24
  4516  00137E  6E50               	movwf	___ftdiv@cntr,c
  4517  001380                     l4146:
  4518  001380  90D8               	bcf	status,0,c
  4519  001382  3651               	rlcf	___ftdiv@f3,f,c
  4520  001384  3652               	rlcf	___ftdiv@f3+1,f,c
  4521  001386  3653               	rlcf	___ftdiv@f3+2,f,c
  4522  001388  504A               	movf	___ftdiv@f2,w,c
  4523  00138A  5C47               	subwf	___ftdiv@f1,w,c
  4524  00138C  504B               	movf	___ftdiv@f2+1,w,c
  4525  00138E  5848               	subwfb	___ftdiv@f1+1,w,c
  4526  001390  504C               	movf	___ftdiv@f2+2,w,c
  4527  001392  5849               	subwfb	___ftdiv@f1+2,w,c
  4528  001394  E307               	bnc	l1655
  4529  001396  504A               	movf	___ftdiv@f2,w,c
  4530  001398  5E47               	subwf	___ftdiv@f1,f,c
  4531  00139A  504B               	movf	___ftdiv@f2+1,w,c
  4532  00139C  5A48               	subwfb	___ftdiv@f1+1,f,c
  4533  00139E  504C               	movf	___ftdiv@f2+2,w,c
  4534  0013A0  5A49               	subwfb	___ftdiv@f1+2,f,c
  4535  0013A2  8051               	bsf	___ftdiv@f3,0,c
  4536  0013A4                     l1655:
  4537  0013A4  90D8               	bcf	status,0,c
  4538  0013A6  3647               	rlcf	___ftdiv@f1,f,c
  4539  0013A8  3648               	rlcf	___ftdiv@f1+1,f,c
  4540  0013AA  3649               	rlcf	___ftdiv@f1+2,f,c
  4541  0013AC  2E50               	decfsz	___ftdiv@cntr,f,c
  4542  0013AE  D7E8               	goto	l4146
  4543  0013B0  C051  F003         	movff	___ftdiv@f3,___ftpack@arg
  4544  0013B4  C052  F004         	movff	___ftdiv@f3+1,___ftpack@arg+1
  4545  0013B8  C053  F005         	movff	___ftdiv@f3+2,___ftpack@arg+2
  4546  0013BC  C054  F006         	movff	___ftdiv@exp,___ftpack@exp
  4547  0013C0  C055  F007         	movff	___ftdiv@sign,___ftpack@sign
  4548  0013C4  EC44  F00A         	call	___ftpack	;wreg free
  4549  0013C8  C003  F047         	movff	?___ftpack,?___ftdiv
  4550  0013CC  C004  F048         	movff	?___ftpack+1,?___ftdiv+1
  4551  0013D0  C005  F049         	movff	?___ftpack+2,?___ftdiv+2
  4552  0013D4  0012               	return		;funcret
  4553  0013D6                     __end_of___ftdiv:
  4554                           	opt stack 0
  4555  0013D6                     PL28:
  4556                           	opt stack 23
  4557  0013D6  6A47               	clrf	?___ftdiv,c
  4558  0013D8  6A48               	clrf	?___ftdiv+1,c
  4559  0013DA  6A49               	clrf	?___ftdiv+2,c
  4560  0013DC  0012               	return	
  4561  0013DE                     __end_ofPL28:
  4562                           	opt stack 0
  4563                           tosu	equ	0xFFF
  4564                           tosh	equ	0xFFE
  4565                           tosl	equ	0xFFD
  4566                           pclath	equ	0xFFA
  4567                           tblptru	equ	0xFF8
  4568                           tblptrh	equ	0xFF7
  4569                           tblptrl	equ	0xFF6
  4570                           tablat	equ	0xFF5
  4571                           prodl	equ	0xFF3
  4572                           intcon	equ	0xFF2
  4573                           postinc0	equ	0xFEE
  4574                           wreg	equ	0xFE8
  4575                           postinc2	equ	0xFDE
  4576                           postdec2	equ	0xFDD
  4577                           fsr2h	equ	0xFDA
  4578                           fsr2l	equ	0xFD9
  4579                           status	equ	0xFD8
  4580                           
  4581 ;; *************** function _TMR1_ReadTimer *****************
  4582 ;; Defined at:
  4583 ;;		line 110 in file "mcc_generated_files/tmr1.c"
  4584 ;; Parameters:    Size  Location     Type
  4585 ;;		None
  4586 ;; Auto vars:     Size  Location     Type
  4587 ;;  readVal         2    6[COMRAM] unsigned int 
  4588 ;;  readValLow      1    9[COMRAM] unsigned char 
  4589 ;;  readValHigh     1    8[COMRAM] unsigned char 
  4590 ;; Return value:  Size  Location     Type
  4591 ;;                  2    2[COMRAM] unsigned int 
  4592 ;; Registers used:
  4593 ;;		wreg, status,2
  4594 ;; Tracked objects:
  4595 ;;		On entry : 3F/0
  4596 ;;		On exit  : 3F/0
  4597 ;;		Unchanged: 3F/0
  4598 ;; Data sizes:     COMRAM   BANK0   BANK1   BANK2   BANK3   BANK4   BANK5   BANK6   BANK7   BANK8   BANK9  BANK10  BANK1
      +1  BANK12  BANK14
  4599 ;;      Params:         2       0       0       0       0       0       0       0       0       0       0       0       
      +0       0       0
  4600 ;;      Locals:         4       0       0       0       0       0       0       0       0       0       0       0       
      +0       0       0
  4601 ;;      Temps:          2       0       0       0       0       0       0       0       0       0       0       0       
      +0       0       0
  4602 ;;      Totals:         8       0       0       0       0       0       0       0       0       0       0       0       
      +0       0       0
  4603 ;;Total ram usage:        8 bytes
  4604 ;; Hardware stack levels used:    1
  4605 ;; Hardware stack levels required when called:    5
  4606 ;; This function calls:
  4607 ;;		Nothing
  4608 ;; This function is called by:
  4609 ;;		_GetAngleTurned
  4610 ;; This function uses a non-reentrant model
  4611 ;;
  4612                           
  4613                           	psect	text33
  4614  001DBC                     __ptext33:
  4615                           	opt stack 0
  4616  001DBC                     _TMR1_ReadTimer:
  4617                           	opt stack 24
  4618                           
  4619                           ; BSR set to: 0
  4620                           ;tmr1.c: 112: uint16_t readVal;
  4621                           ;tmr1.c: 113: uint8_t readValHigh;
  4622                           ;tmr1.c: 114: uint8_t readValLow;
  4623                           ;tmr1.c: 116: T1CONbits.T1RD16 = 1;
  4624                           
  4625                           ;incstack = 0
  4626  001DBC  82CE               	bsf	4046,1,c	;volatile
  4627                           
  4628                           ;tmr1.c: 118: readValLow = TMR1L;
  4629  001DBE  CFCC F00A          	movff	4044,TMR1_ReadTimer@readValLow	;volatile
  4630                           
  4631                           ;tmr1.c: 119: readValHigh = TMR1H;
  4632  001DC2  CFCD F009          	movff	4045,TMR1_ReadTimer@readValHigh	;volatile
  4633                           
  4634                           ; BSR set to: 0
  4635                           ;tmr1.c: 121: readVal = ((uint16_t)readValHigh << 8) | readValLow;
  4636  001DC6  5009               	movf	TMR1_ReadTimer@readValHigh,w,c
  4637  001DC8  6E05               	movwf	??_TMR1_ReadTimer& (0+255),c
  4638  001DCA  500A               	movf	TMR1_ReadTimer@readValLow,w,c
  4639  001DCC  6E07               	movwf	TMR1_ReadTimer@readVal,c
  4640  001DCE  C005  F008         	movff	??_TMR1_ReadTimer,TMR1_ReadTimer@readVal+1
  4641                           
  4642                           ; BSR set to: 0
  4643                           ;tmr1.c: 123: return readVal;
  4644  001DD2  C007  F003         	movff	TMR1_ReadTimer@readVal,?_TMR1_ReadTimer
  4645  001DD6  C008  F004         	movff	TMR1_ReadTimer@readVal+1,?_TMR1_ReadTimer+1
  4646                           
  4647                           ; BSR set to: 0
  4648  001DDA  0012               	return		;funcret
  4649  001DDC                     __end_of_TMR1_ReadTimer:
  4650                           	opt stack 0
  4651                           tosu	equ	0xFFF
  4652                           tosh	equ	0xFFE
  4653                           tosl	equ	0xFFD
  4654                           pclath	equ	0xFFA
  4655                           tblptru	equ	0xFF8
  4656                           tblptrh	equ	0xFF7
  4657                           tblptrl	equ	0xFF6
  4658                           tablat	equ	0xFF5
  4659                           prodl	equ	0xFF3
  4660                           intcon	equ	0xFF2
  4661                           postinc0	equ	0xFEE
  4662                           wreg	equ	0xFE8
  4663                           postinc2	equ	0xFDE
  4664                           postdec2	equ	0xFDD
  4665                           fsr2h	equ	0xFDA
  4666                           fsr2l	equ	0xFD9
  4667                           status	equ	0xFD8
  4668                           
  4669 ;; *************** function _CheckReverseButton *****************
  4670 ;; Defined at:
  4671 ;;		line 27 in file "check_buttons.c"
  4672 ;; Parameters:    Size  Location     Type
  4673 ;;		None
  4674 ;; Auto vars:     Size  Location     Type
  4675 ;;		None
  4676 ;; Return value:  Size  Location     Type
  4677 ;;                  1    wreg      void 
  4678 ;; Registers used:
  4679 ;;		wreg, status,2, status,0, cstack
  4680 ;; Tracked objects:
  4681 ;;		On entry : 30/0
  4682 ;;		On exit  : 30/0
  4683 ;;		Unchanged: 0/0
  4684 ;; Data sizes:     COMRAM   BANK0   BANK1   BANK2   BANK3   BANK4   BANK5   BANK6   BANK7   BANK8   BANK9  BANK10  BANK1
      +1  BANK12  BANK14
  4685 ;;      Params:         0       0       0       0       0       0       0       0       0       0       0       0       
      +0       0       0
  4686 ;;      Locals:         0       0       0       0       0       0       0       0       0       0       0       0       
      +0       0       0
  4687 ;;      Temps:          2       0       0       0       0       0       0       0       0       0       0       0       
      +0       0       0
  4688 ;;      Totals:         2       0       0       0       0       0       0       0       0       0       0       0       
      +0       0       0
  4689 ;;Total ram usage:        2 bytes
  4690 ;; Hardware stack levels used:    1
  4691 ;; Hardware stack levels required when called:    9
  4692 ;; This function calls:
  4693 ;;		_Reverse_Dir
  4694 ;; This function is called by:
  4695 ;;		_main
  4696 ;; This function uses a non-reentrant model
  4697 ;;
  4698                           
  4699                           	psect	text34
  4700  001B5A                     __ptext34:
  4701                           	opt stack 0
  4702  001B5A                     _CheckReverseButton:
  4703                           	opt stack 21
  4704                           
  4705                           ;check_buttons.c: 29: if(PORTCbits.RC5 == 0)
  4706                           
  4707                           ; BSR set to: 0
  4708                           ;incstack = 0
  4709  001B5A  BA8E               	btfsc	3982,5,c	;volatile
  4710  001B5C  D010               	goto	l1320
  4711                           
  4712                           ;check_buttons.c: 30: {
  4713                           ;check_buttons.c: 31: _delay((unsigned long)((100)*(16000000/4000.0)));
  4714  001B5E  0E03               	movlw	3
  4715  001B60  6E08               	movwf	(??_CheckReverseButton+1)& (0+255),c
  4716  001B62  0E08               	movlw	8
  4717  001B64  6E07               	movwf	??_CheckReverseButton& (0+255),c
  4718  001B66  0E77               	movlw	119
  4719  001B68                     u3087:
  4720  001B68  2EE8               	decfsz	wreg,f,c
  4721  001B6A  D7FE               	bra	u3087
  4722  001B6C  2E07               	decfsz	??_CheckReverseButton& (0+255),f,c
  4723  001B6E  D7FC               	bra	u3087
  4724  001B70  2E08               	decfsz	(??_CheckReverseButton+1)& (0+255),f,c
  4725  001B72  D7FA               	bra	u3087
  4726  001B74  F000               	nop	
  4727                           
  4728                           ;check_buttons.c: 32: reverseBtnPressed = 1;
  4729  001B76  0E01               	movlw	1
  4730  001B78  0100               	movlb	0	; () banked
  4731  001B7A  6F6C               	movwf	_reverseBtnPressed& (0+255),b
  4732                           
  4733                           ;check_buttons.c: 33: }
  4734  001B7C  0C01               	retlw	1
  4735  001B7E                     l1320:
  4736                           
  4737                           ;check_buttons.c: 35: else if(PORTCbits.RC5 == 1)
  4738  001B7E  AA8E               	btfss	3982,5,c	;volatile
  4739  001B80  0012               	return	
  4740                           
  4741                           ;check_buttons.c: 36: {
  4742                           ;check_buttons.c: 37: if(reverseBtnPressed)
  4743  001B82  0100               	movlb	0	; () banked
  4744  001B84  516C               	movf	_reverseBtnPressed& (0+255),w,b
  4745  001B86  B4D8               	btfsc	status,2,c
  4746  001B88  0012               	return	
  4747                           
  4748                           ; BSR set to: 0
  4749                           ;check_buttons.c: 38: {
  4750                           ;check_buttons.c: 39: reverseBtnPressed = 0;
  4751  001B8A  6B6C               	clrf	_reverseBtnPressed& (0+255),b
  4752                           
  4753                           ; BSR set to: 0
  4754                           ;check_buttons.c: 40: Reverse_Dir();
  4755  001B8C  EFA8  F00E         	goto	_Reverse_Dir	;wreg free
  4756  001B90                     __end_of_CheckReverseButton:
  4757                           	opt stack 0
  4758                           tosu	equ	0xFFF
  4759                           tosh	equ	0xFFE
  4760                           tosl	equ	0xFFD
  4761                           pclath	equ	0xFFA
  4762                           tblptru	equ	0xFF8
  4763                           tblptrh	equ	0xFF7
  4764                           tblptrl	equ	0xFF6
  4765                           tablat	equ	0xFF5
  4766                           prodl	equ	0xFF3
  4767                           intcon	equ	0xFF2
  4768                           postinc0	equ	0xFEE
  4769                           wreg	equ	0xFE8
  4770                           postinc2	equ	0xFDE
  4771                           postdec2	equ	0xFDD
  4772                           fsr2h	equ	0xFDA
  4773                           fsr2l	equ	0xFD9
  4774                           status	equ	0xFD8
  4775                           
  4776 ;; *************** function _CheckHomeButton *****************
  4777 ;; Defined at:
  4778 ;;		line 45 in file "check_buttons.c"
  4779 ;; Parameters:    Size  Location     Type
  4780 ;;		None
  4781 ;; Auto vars:     Size  Location     Type
  4782 ;;		None
  4783 ;; Return value:  Size  Location     Type
  4784 ;;                  1    wreg      void 
  4785 ;; Registers used:
  4786 ;;		wreg, fsr2l, fsr2h, status,2, status,0, cstack
  4787 ;; Tracked objects:
  4788 ;;		On entry : 30/0
  4789 ;;		On exit  : 30/0
  4790 ;;		Unchanged: 0/0
  4791 ;; Data sizes:     COMRAM   BANK0   BANK1   BANK2   BANK3   BANK4   BANK5   BANK6   BANK7   BANK8   BANK9  BANK10  BANK1
      +1  BANK12  BANK14
  4792 ;;      Params:         0       0       0       0       0       0       0       0       0       0       0       0       
      +0       0       0
  4793 ;;      Locals:         0       0       0       0       0       0       0       0       0       0       0       0       
      +0       0       0
  4794 ;;      Temps:          0       2       0       0       0       0       0       0       0       0       0       0       
      +0       0       0
  4795 ;;      Totals:         0       2       0       0       0       0       0       0       0       0       0       0       
      +0       0       0
  4796 ;;Total ram usage:        2 bytes
  4797 ;; Hardware stack levels used:    1
  4798 ;; Hardware stack levels required when called:   10
  4799 ;; This function calls:
  4800 ;;		_CompareLoadValue
  4801 ;;		_ExpectedRippleCountRemainingAngle
  4802 ;;		_ExpectedRippleCountToHome
  4803 ;;		_Reverse_Dir
  4804 ;; This function is called by:
  4805 ;;		_main
  4806 ;; This function uses a non-reentrant model
  4807 ;;
  4808                           
  4809                           	psect	text35
  4810  001906                     __ptext35:
  4811                           	opt stack 0
  4812  001906                     _CheckHomeButton:
  4813                           	opt stack 20
  4814                           
  4815                           ;check_buttons.c: 47: if(PORTBbits.RB1 == 0)
  4816                           
  4817                           ;incstack = 0
  4818  001906  B28D               	btfsc	3981,1,c	;volatile
  4819  001908  D010               	goto	l1327
  4820                           
  4821                           ;check_buttons.c: 48: {
  4822                           ;check_buttons.c: 49: _delay((unsigned long)((100)*(16000000/4000.0)));
  4823  00190A  0E03               	movlw	3
  4824  00190C  0100               	movlb	0	; () banked
  4825  00190E  6F7D               	movwf	(??_CheckHomeButton+1)& (0+255),b
  4826  001910  0E08               	movlw	8
  4827  001912  6F7C               	movwf	??_CheckHomeButton& (0+255),b
  4828  001914  0E77               	movlw	119
  4829  001916                     u3097:
  4830  001916  2EE8               	decfsz	wreg,f,c
  4831  001918  D7FE               	bra	u3097
  4832  00191A  2F7C               	decfsz	??_CheckHomeButton& (0+255),f,b
  4833  00191C  D7FC               	bra	u3097
  4834  00191E  2F7D               	decfsz	(??_CheckHomeButton+1)& (0+255),f,b
  4835  001920  D7FA               	bra	u3097
  4836                           
  4837                           ;check_buttons.c: 50: homeBtnPressed = 1;
  4838  001922  0E01               	movlw	1
  4839  001924  0100               	movlb	0	; () banked
  4840  001926  6F6F               	movwf	_homeBtnPressed& (0+255),b
  4841                           
  4842                           ;check_buttons.c: 51: }
  4843  001928  0C01               	retlw	1
  4844  00192A                     l1327:
  4845                           
  4846                           ;check_buttons.c: 53: else if(PORTBbits.RB1 == 1)
  4847  00192A  A28D               	btfss	3981,1,c	;volatile
  4848  00192C  0012               	return	
  4849                           
  4850                           ;check_buttons.c: 54: {
  4851                           ;check_buttons.c: 55: if(homeBtnPressed)
  4852  00192E  0100               	movlb	0	; () banked
  4853  001930  516F               	movf	_homeBtnPressed& (0+255),w,b
  4854  001932  B4D8               	btfsc	status,2,c
  4855  001934  0012               	return	
  4856                           
  4857                           ; BSR set to: 0
  4858                           ;check_buttons.c: 56: {
  4859                           ;check_buttons.c: 57: homeBtnPressed = 0;
  4860  001936  6B6F               	clrf	_homeBtnPressed& (0+255),b
  4861                           
  4862                           ; BSR set to: 0
  4863                           ;check_buttons.c: 59: if(reverseOrigin)
  4864  001938  505B               	movf	_reverseOrigin,w,c
  4865  00193A  E003               	bz	l4194
  4866                           
  4867                           ; BSR set to: 0
  4868                           ;check_buttons.c: 60: {
  4869                           ;check_buttons.c: 61: reverseOrigin = 0;
  4870  00193C  6A5B               	clrf	_reverseOrigin,c
  4871                           
  4872                           ; BSR set to: 0
  4873                           ;check_buttons.c: 62: ExpectedRippleCountRemainingAngle();
  4874  00193E  EC37  F00D         	call	_ExpectedRippleCountRemainingAngle	;wreg free
  4875  001942                     l4194:
  4876                           
  4877                           ;check_buttons.c: 63: }
  4878                           ;check_buttons.c: 65: if(!reverseOrigin)
  4879  001942  505B               	movf	_reverseOrigin,w,c
  4880  001944  E102               	bnz	l4198
  4881                           
  4882                           ;check_buttons.c: 66: {
  4883                           ;check_buttons.c: 67: ExpectedRippleCountToHome();
  4884  001946  ECB4  F00B         	call	_ExpectedRippleCountToHome	;wreg free
  4885  00194A                     l4198:
  4886                           
  4887                           ;check_buttons.c: 68: }
  4888                           ;check_buttons.c: 69: CompareLoadValue();
  4889  00194A  EC66  F00E         	call	_CompareLoadValue	;wreg free
  4890                           
  4891                           ; BSR set to: 0
  4892                           ;check_buttons.c: 70: Reverse_Dir();
  4893  00194E  EFA8  F00E         	goto	_Reverse_Dir	;wreg free
  4894  001952                     __end_of_CheckHomeButton:
  4895                           	opt stack 0
  4896                           tosu	equ	0xFFF
  4897                           tosh	equ	0xFFE
  4898                           tosl	equ	0xFFD
  4899                           pclath	equ	0xFFA
  4900                           tblptru	equ	0xFF8
  4901                           tblptrh	equ	0xFF7
  4902                           tblptrl	equ	0xFF6
  4903                           tablat	equ	0xFF5
  4904                           prodl	equ	0xFF3
  4905                           intcon	equ	0xFF2
  4906                           postinc0	equ	0xFEE
  4907                           wreg	equ	0xFE8
  4908                           postinc2	equ	0xFDE
  4909                           postdec2	equ	0xFDD
  4910                           fsr2h	equ	0xFDA
  4911                           fsr2l	equ	0xFD9
  4912                           status	equ	0xFD8
  4913                           
  4914 ;; *************** function _Reverse_Dir *****************
  4915 ;; Defined at:
  4916 ;;		line 55 in file "motor_drive.c"
  4917 ;; Parameters:    Size  Location     Type
  4918 ;;		None
  4919 ;; Auto vars:     Size  Location     Type
  4920 ;;		None
  4921 ;; Return value:  Size  Location     Type
  4922 ;;                  1    wreg      void 
  4923 ;; Registers used:
  4924 ;;		wreg, status,2, status,0, cstack
  4925 ;; Tracked objects:
  4926 ;;		On entry : 3F/0
  4927 ;;		On exit  : 30/0
  4928 ;;		Unchanged: 0/0
  4929 ;; Data sizes:     COMRAM   BANK0   BANK1   BANK2   BANK3   BANK4   BANK5   BANK6   BANK7   BANK8   BANK9  BANK10  BANK1
      +1  BANK12  BANK14
  4930 ;;      Params:         0       0       0       0       0       0       0       0       0       0       0       0       
      +0       0       0
  4931 ;;      Locals:         0       0       0       0       0       0       0       0       0       0       0       0       
      +0       0       0
  4932 ;;      Temps:          0       0       0       0       0       0       0       0       0       0       0       0       
      +0       0       0
  4933 ;;      Totals:         0       0       0       0       0       0       0       0       0       0       0       0       
      +0       0       0
  4934 ;;Total ram usage:        0 bytes
  4935 ;; Hardware stack levels used:    1
  4936 ;; Hardware stack levels required when called:    8
  4937 ;; This function calls:
  4938 ;;		_StartCounting
  4939 ;; This function is called by:
  4940 ;;		_ResumeMotor
  4941 ;;		_CheckReverseButton
  4942 ;;		_CheckHomeButton
  4943 ;; This function uses a non-reentrant model
  4944 ;;
  4945                           
  4946                           	psect	text36
  4947  001D50                     __ptext36:
  4948                           	opt stack 0
  4949  001D50                     _Reverse_Dir:
  4950                           	opt stack 21
  4951                           
  4952                           ; BSR set to: 0
  4953                           ;motor_drive.c: 57: CWG1CON0bits.MODE = 0x3;
  4954                           
  4955                           ;incstack = 0
  4956  001D50  010F               	movlb	15	; () banked
  4957  001D52  513F               	movf	63,w,b	;volatile
  4958  001D54  0BF8               	andlw	-8
  4959  001D56  0903               	iorlw	3
  4960                           
  4961                           ;motor_drive.c: 59: if (inputSet)
  4962  001D58  ECDF  F00D         	call	PL50	;call to abstracted procedure
  4963  001D5C  B4D8               	btfsc	status,2,c
  4964  001D5E  0012               	return	
  4965                           
  4966                           ; BSR set to: 0
  4967                           ;motor_drive.c: 60: {
  4968                           ;motor_drive.c: 61: inputSet = 0;
  4969  001D60  6B75               	clrf	_inputSet& (0+255),b
  4970                           
  4971                           ; BSR set to: 0
  4972                           ;motor_drive.c: 62: reverseDirection = 1;
  4973  001D62  0E01               	movlw	1
  4974  001D64  6F72               	movwf	_reverseDirection& (0+255),b
  4975                           
  4976                           ; BSR set to: 0
  4977                           ;motor_drive.c: 63: if(totalAngleTurned <= 0)
  4978  001D66  5059               	movf	_totalAngleTurned,w,c
  4979  001D68  105A               	iorwf	_totalAngleTurned+1,w,c
  4980  001D6A  E002 EFBA  F00E    	bnz	_StartCounting
  4981                           
  4982                           ; BSR set to: 0
  4983                           
  4984                           ;motor_drive.c: 64: {
  4985                           ;motor_drive.c: 65: do{CWG1AS0bits.CWG1SHUTDOWN = 1;} while(0);
  4986  001D70  EFDC  F00D         	goto	__end_ofPL34	;call to abstracted procedure
  4987  001D74                     __end_of_Reverse_Dir:
  4988                           	opt stack 0
  4989                           tosu	equ	0xFFF
  4990                           tosh	equ	0xFFE
  4991                           tosl	equ	0xFFD
  4992                           pclath	equ	0xFFA
  4993                           tblptru	equ	0xFF8
  4994                           tblptrh	equ	0xFF7
  4995                           tblptrl	equ	0xFF6
  4996                           tablat	equ	0xFF5
  4997                           prodl	equ	0xFF3
  4998                           intcon	equ	0xFF2
  4999                           postinc0	equ	0xFEE
  5000                           wreg	equ	0xFE8
  5001                           postinc2	equ	0xFDE
  5002                           postdec2	equ	0xFDD
  5003                           fsr2h	equ	0xFDA
  5004                           fsr2l	equ	0xFD9
  5005                           status	equ	0xFD8
  5006                           
  5007 ;; *************** function _ExpectedRippleCountToHome *****************
  5008 ;; Defined at:
  5009 ;;		line 71 in file "counting_ripples.c"
  5010 ;; Parameters:    Size  Location     Type
  5011 ;;		None
  5012 ;; Auto vars:     Size  Location     Type
  5013 ;;		None
  5014 ;; Return value:  Size  Location     Type
  5015 ;;                  1    wreg      void 
  5016 ;; Registers used:
  5017 ;;		wreg, fsr2l, fsr2h, status,2, status,0, cstack
  5018 ;; Tracked objects:
  5019 ;;		On entry : 0/0
  5020 ;;		On exit  : 3F/0
  5021 ;;		Unchanged: 0/0
  5022 ;; Data sizes:     COMRAM   BANK0   BANK1   BANK2   BANK3   BANK4   BANK5   BANK6   BANK7   BANK8   BANK9  BANK10  BANK1
      +1  BANK12  BANK14
  5023 ;;      Params:         0       0       0       0       0       0       0       0       0       0       0       0       
      +0       0       0
  5024 ;;      Locals:         3       0       0       0       0       0       0       0       0       0       0       0       
      +0       0       0
  5025 ;;      Temps:          0       0       0       0       0       0       0       0       0       0       0       0       
      +0       0       0
  5026 ;;      Totals:         3       0       0       0       0       0       0       0       0       0       0       0       
      +0       0       0
  5027 ;;Total ram usage:        3 bytes
  5028 ;; Hardware stack levels used:    1
  5029 ;; Hardware stack levels required when called:    9
  5030 ;; This function calls:
  5031 ;;		___ftadd
  5032 ;;		___ftmul
  5033 ;;		___fttol
  5034 ;;		___lwtoft
  5035 ;;		_round
  5036 ;; This function is called by:
  5037 ;;		_ResumeMotor
  5038 ;;		_CheckHomeButton
  5039 ;; This function uses a non-reentrant model
  5040 ;;
  5041                           
  5042                           	psect	text37
  5043  001768                     __ptext37:
  5044                           	opt stack 0
  5045  001768                     _ExpectedRippleCountToHome:
  5046                           	opt stack 0
  5047                           
  5048                           ;counting_ripples.c: 73: expectedRippleCount = (totalAngleTurned * round(((float)(1*250*
      +                           3)/180))) + 10;
  5049                           
  5050                           ;incstack = 0
  5051  001768  EC3D  F00A         	call	PL2	;call to abstracted procedure
  5052  00176C  ECC8  F00A         	call	_round	;wreg free
  5053  001770  D827               	call	PL6	;call to abstracted procedure
  5054  001772  C059  F00B         	movff	_totalAngleTurned,___lwtoft@c
  5055  001776  C05A  F00C         	movff	_totalAngleTurned+1,___lwtoft@c+1
  5056  00177A  ECCC  F00E         	call	___lwtoft	;wreg free
  5057  00177E  D819               	call	PL4	;call to abstracted procedure
  5058  001780  ECD4  F008         	call	___ftmul	;wreg free
  5059  001784  C047  F056         	movff	?___ftmul,_ExpectedRippleCountToHome$3521
  5060  001788  C048  F057         	movff	?___ftmul+1,_ExpectedRippleCountToHome$3521+1
  5061  00178C  C049  F058         	movff	?___ftmul+2,_ExpectedRippleCountToHome$3521+2
  5062                           
  5063                           ;counting_ripples.c: 73: expectedRippleCount = (totalAngleTurned * round(((float)(1*250*
      +                           3)/180))) + 10;
  5064  001790  ECB9  F00A         	call	PL26	;call to abstracted procedure
  5065  001794  C056  F00E         	movff	_ExpectedRippleCountToHome$3521,___ftadd@f1
  5066  001798  C057  F00F         	movff	_ExpectedRippleCountToHome$3521+1,___ftadd@f1+1
  5067  00179C  C058  F010         	movff	_ExpectedRippleCountToHome$3521+2,___ftadd@f1+2
  5068  0017A0  ECB5  F007         	call	___ftadd	;wreg free
  5069  0017A4  ECB2  F00A         	call	PL20	;call to abstracted procedure
  5070  0017A8  EC38  F009         	call	___fttol	;wreg free
  5071  0017AC  D810               	call	PL14	;call to abstracted procedure
  5072                           
  5073                           ;counting_ripples.c: 74: dummy = 1;
  5074                           
  5075                           ; BSR set to: 0
  5076  0017AE  EFBF  F00A         	goto	__end_ofPL26	;call to abstracted procedure
  5077  0017B2                     __end_of_ExpectedRippleCountToHome:
  5078                           	opt stack 0
  5079  0017B2                     PL4:
  5080                           	opt stack 20
  5081  0017B2  C00B  F047         	movff	?___lwtoft,___ftmul@f1
  5082  0017B6  C00C  F048         	movff	?___lwtoft+1,___ftmul@f1+1
  5083  0017BA  C00D  F049         	movff	?___lwtoft+2,___ftmul@f1+2
  5084  0017BE  0012               	return	
  5085  0017C0                     __end_ofPL4:
  5086                           	opt stack 0
  5087  0017C0                     PL6:
  5088                           	opt stack 20
  5089  0017C0  C041  F04A         	movff	?_round,___ftmul@f2
  5090  0017C4  C042  F04B         	movff	?_round+1,___ftmul@f2+1
  5091  0017C8  C043  F04C         	movff	?_round+2,___ftmul@f2+2
  5092  0017CC  0012               	return	
  5093  0017CE                     __end_ofPL6:
  5094                           	opt stack 0
  5095  0017CE                     PL14:
  5096                           	opt stack 20
  5097  0017CE  C01A  F062         	movff	?___fttol,_expectedRippleCount
  5098  0017D2  C01B  F063         	movff	?___fttol+1,_expectedRippleCount+1
  5099  0017D6  0012               	return	
  5100  0017D8                     __end_ofPL14:
  5101                           	opt stack 0
  5102                           tosu	equ	0xFFF
  5103                           tosh	equ	0xFFE
  5104                           tosl	equ	0xFFD
  5105                           pclath	equ	0xFFA
  5106                           tblptru	equ	0xFF8
  5107                           tblptrh	equ	0xFF7
  5108                           tblptrl	equ	0xFF6
  5109                           tablat	equ	0xFF5
  5110                           prodl	equ	0xFF3
  5111                           intcon	equ	0xFF2
  5112                           postinc0	equ	0xFEE
  5113                           wreg	equ	0xFE8
  5114                           postinc2	equ	0xFDE
  5115                           postdec2	equ	0xFDD
  5116                           fsr2h	equ	0xFDA
  5117                           fsr2l	equ	0xFD9
  5118                           status	equ	0xFD8
  5119                           
  5120 ;; *************** function _CheckForwardButton *****************
  5121 ;; Defined at:
  5122 ;;		line 10 in file "check_buttons.c"
  5123 ;; Parameters:    Size  Location     Type
  5124 ;;		None
  5125 ;; Auto vars:     Size  Location     Type
  5126 ;;		None
  5127 ;; Return value:  Size  Location     Type
  5128 ;;                  1    wreg      void 
  5129 ;; Registers used:
  5130 ;;		wreg, status,2, status,0, cstack
  5131 ;; Tracked objects:
  5132 ;;		On entry : 3F/0
  5133 ;;		On exit  : 30/0
  5134 ;;		Unchanged: 0/0
  5135 ;; Data sizes:     COMRAM   BANK0   BANK1   BANK2   BANK3   BANK4   BANK5   BANK6   BANK7   BANK8   BANK9  BANK10  BANK1
      +1  BANK12  BANK14
  5136 ;;      Params:         0       0       0       0       0       0       0       0       0       0       0       0       
      +0       0       0
  5137 ;;      Locals:         0       0       0       0       0       0       0       0       0       0       0       0       
      +0       0       0
  5138 ;;      Temps:          2       0       0       0       0       0       0       0       0       0       0       0       
      +0       0       0
  5139 ;;      Totals:         2       0       0       0       0       0       0       0       0       0       0       0       
      +0       0       0
  5140 ;;Total ram usage:        2 bytes
  5141 ;; Hardware stack levels used:    1
  5142 ;; Hardware stack levels required when called:    9
  5143 ;; This function calls:
  5144 ;;		_Forward_Dir
  5145 ;; This function is called by:
  5146 ;;		_main
  5147 ;; This function uses a non-reentrant model
  5148 ;;
  5149                           
  5150                           	psect	text38
  5151  001C98                     __ptext38:
  5152                           	opt stack 0
  5153  001C98                     _CheckForwardButton:
  5154                           	opt stack 21
  5155                           
  5156                           ; BSR set to: 0
  5157                           ;check_buttons.c: 12: if(PORTBbits.RB4 == 0)
  5158                           
  5159                           ; BSR set to: 0
  5160                           ;incstack = 0
  5161  001C98  B88D               	btfsc	3981,4,c	;volatile
  5162  001C9A  D010               	goto	l1313
  5163                           
  5164                           ; BSR set to: 0
  5165                           ;check_buttons.c: 13: {
  5166                           ;check_buttons.c: 14: _delay((unsigned long)((100)*(16000000/4000.0)));
  5167  001C9C  0E03               	movlw	3
  5168  001C9E  6E08               	movwf	(??_CheckForwardButton+1)& (0+255),c
  5169  001CA0  0E08               	movlw	8
  5170  001CA2  6E07               	movwf	??_CheckForwardButton& (0+255),c
  5171  001CA4  0E77               	movlw	119
  5172  001CA6                     u3107:
  5173  001CA6  2EE8               	decfsz	wreg,f,c
  5174  001CA8  D7FE               	bra	u3107
  5175  001CAA  2E07               	decfsz	??_CheckForwardButton& (0+255),f,c
  5176  001CAC  D7FC               	bra	u3107
  5177  001CAE  2E08               	decfsz	(??_CheckForwardButton+1)& (0+255),f,c
  5178  001CB0  D7FA               	bra	u3107
  5179  001CB2  F000               	nop	
  5180                           
  5181                           ;check_buttons.c: 15: forwardBtnPressed = 1;
  5182  001CB4  0E01               	movlw	1
  5183  001CB6  0100               	movlb	0	; () banked
  5184  001CB8  6F6D               	movwf	_forwardBtnPressed& (0+255),b
  5185                           
  5186                           ;check_buttons.c: 16: }
  5187  001CBA  0C01               	retlw	1
  5188  001CBC                     l1313:
  5189                           
  5190                           ; BSR set to: 0
  5191                           ;check_buttons.c: 17: else if (PORTBbits.RB4 == 1)
  5192  001CBC  A88D               	btfss	3981,4,c	;volatile
  5193  001CBE  0012               	return	
  5194                           
  5195                           ; BSR set to: 0
  5196                           ;check_buttons.c: 18: {
  5197                           ;check_buttons.c: 19: if(forwardBtnPressed)
  5198  001CC0  516D               	movf	_forwardBtnPressed& (0+255),w,b
  5199  001CC2  B4D8               	btfsc	status,2,c
  5200  001CC4  0012               	return	
  5201                           
  5202                           ; BSR set to: 0
  5203                           ;check_buttons.c: 20: {
  5204                           ;check_buttons.c: 21: forwardBtnPressed = 0;
  5205  001CC6  6B6D               	clrf	_forwardBtnPressed& (0+255),b
  5206                           
  5207                           ; BSR set to: 0
  5208                           ;check_buttons.c: 22: Forward_Dir();
  5209  001CC8  EFC8  F00D         	goto	_Forward_Dir	;wreg free
  5210  001CCC                     __end_of_CheckForwardButton:
  5211                           	opt stack 0
  5212                           tosu	equ	0xFFF
  5213                           tosh	equ	0xFFE
  5214                           tosl	equ	0xFFD
  5215                           pclath	equ	0xFFA
  5216                           tblptru	equ	0xFF8
  5217                           tblptrh	equ	0xFF7
  5218                           tblptrl	equ	0xFF6
  5219                           tablat	equ	0xFF5
  5220                           prodl	equ	0xFF3
  5221                           intcon	equ	0xFF2
  5222                           postinc0	equ	0xFEE
  5223                           wreg	equ	0xFE8
  5224                           postinc2	equ	0xFDE
  5225                           postdec2	equ	0xFDD
  5226                           fsr2h	equ	0xFDA
  5227                           fsr2l	equ	0xFD9
  5228                           status	equ	0xFD8
  5229                           
  5230 ;; *************** function _CheckEndButton *****************
  5231 ;; Defined at:
  5232 ;;		line 75 in file "check_buttons.c"
  5233 ;; Parameters:    Size  Location     Type
  5234 ;;		None
  5235 ;; Auto vars:     Size  Location     Type
  5236 ;;		None
  5237 ;; Return value:  Size  Location     Type
  5238 ;;                  1    wreg      void 
  5239 ;; Registers used:
  5240 ;;		wreg, fsr2l, fsr2h, status,2, status,0, cstack
  5241 ;; Tracked objects:
  5242 ;;		On entry : 30/0
  5243 ;;		On exit  : 30/0
  5244 ;;		Unchanged: 0/0
  5245 ;; Data sizes:     COMRAM   BANK0   BANK1   BANK2   BANK3   BANK4   BANK5   BANK6   BANK7   BANK8   BANK9  BANK10  BANK1
      +1  BANK12  BANK14
  5246 ;;      Params:         0       0       0       0       0       0       0       0       0       0       0       0       
      +0       0       0
  5247 ;;      Locals:         0       0       0       0       0       0       0       0       0       0       0       0       
      +0       0       0
  5248 ;;      Temps:          0       2       0       0       0       0       0       0       0       0       0       0       
      +0       0       0
  5249 ;;      Totals:         0       2       0       0       0       0       0       0       0       0       0       0       
      +0       0       0
  5250 ;;Total ram usage:        2 bytes
  5251 ;; Hardware stack levels used:    1
  5252 ;; Hardware stack levels required when called:   10
  5253 ;; This function calls:
  5254 ;;		_CompareLoadValue
  5255 ;;		_ExpectedRippleCountRemainingAngle
  5256 ;;		_ExpectedRippleCountToEndPoint
  5257 ;;		_Forward_Dir
  5258 ;; This function is called by:
  5259 ;;		_main
  5260 ;; This function uses a non-reentrant model
  5261 ;;
  5262                           
  5263                           	psect	text39
  5264  001952                     __ptext39:
  5265                           	opt stack 0
  5266  001952                     _CheckEndButton:
  5267                           	opt stack 20
  5268                           
  5269                           ;check_buttons.c: 77: if(PORTBbits.RB2 == 0)
  5270                           
  5271                           ;incstack = 0
  5272  001952  B48D               	btfsc	3981,2,c	;volatile
  5273  001954  D010               	goto	l1336
  5274                           
  5275                           ;check_buttons.c: 78: {
  5276                           ;check_buttons.c: 79: _delay((unsigned long)((100)*(16000000/4000.0)));
  5277  001956  0E03               	movlw	3
  5278  001958  0100               	movlb	0	; () banked
  5279  00195A  6F7D               	movwf	(??_CheckEndButton+1)& (0+255),b
  5280  00195C  0E08               	movlw	8
  5281  00195E  6F7C               	movwf	??_CheckEndButton& (0+255),b
  5282  001960  0E77               	movlw	119
  5283  001962                     u3117:
  5284  001962  2EE8               	decfsz	wreg,f,c
  5285  001964  D7FE               	bra	u3117
  5286  001966  2F7C               	decfsz	??_CheckEndButton& (0+255),f,b
  5287  001968  D7FC               	bra	u3117
  5288  00196A  2F7D               	decfsz	(??_CheckEndButton+1)& (0+255),f,b
  5289  00196C  D7FA               	bra	u3117
  5290                           
  5291                           ;check_buttons.c: 80: endBtnPressed = 1;
  5292  00196E  0E01               	movlw	1
  5293  001970  0100               	movlb	0	; () banked
  5294  001972  6F6E               	movwf	_endBtnPressed& (0+255),b
  5295                           
  5296                           ;check_buttons.c: 81: }
  5297  001974  0C01               	retlw	1
  5298  001976                     l1336:
  5299                           
  5300                           ;check_buttons.c: 83: else if(PORTBbits.RB2 == 1)
  5301  001976  A48D               	btfss	3981,2,c	;volatile
  5302  001978  0012               	return	
  5303                           
  5304                           ;check_buttons.c: 84: {
  5305                           ;check_buttons.c: 85: if(endBtnPressed)
  5306  00197A  0100               	movlb	0	; () banked
  5307  00197C  516E               	movf	_endBtnPressed& (0+255),w,b
  5308  00197E  B4D8               	btfsc	status,2,c
  5309  001980  0012               	return	
  5310                           
  5311                           ; BSR set to: 0
  5312                           ;check_buttons.c: 86: {
  5313                           ;check_buttons.c: 87: endBtnPressed = 0;
  5314  001982  6B6E               	clrf	_endBtnPressed& (0+255),b
  5315                           
  5316                           ; BSR set to: 0
  5317                           ;check_buttons.c: 89: if(!reverseOrigin)
  5318  001984  505B               	movf	_reverseOrigin,w,c
  5319  001986  E102               	bnz	l4216
  5320                           
  5321                           ; BSR set to: 0
  5322                           ;check_buttons.c: 90: {
  5323                           ;check_buttons.c: 91: ExpectedRippleCountRemainingAngle();
  5324  001988  EC37  F00D         	call	_ExpectedRippleCountRemainingAngle	;wreg free
  5325  00198C                     l4216:
  5326                           
  5327                           ;check_buttons.c: 92: }
  5328                           ;check_buttons.c: 94: if(reverseOrigin)
  5329  00198C  505B               	movf	_reverseOrigin,w,c
  5330  00198E  E003               	bz	l4222
  5331                           
  5332                           ;check_buttons.c: 95: {
  5333                           ;check_buttons.c: 96: reverseOrigin = 0;
  5334  001990  6A5B               	clrf	_reverseOrigin,c
  5335                           
  5336                           ;check_buttons.c: 97: ExpectedRippleCountToEndPoint();
  5337  001992  EC87  F00A         	call	_ExpectedRippleCountToEndPoint	;wreg free
  5338  001996                     l4222:
  5339                           
  5340                           ;check_buttons.c: 98: }
  5341                           ;check_buttons.c: 99: CompareLoadValue();
  5342  001996  EC66  F00E         	call	_CompareLoadValue	;wreg free
  5343                           
  5344                           ; BSR set to: 0
  5345                           ;check_buttons.c: 100: Forward_Dir();
  5346  00199A  EFC8  F00D         	goto	_Forward_Dir	;wreg free
  5347  00199E                     __end_of_CheckEndButton:
  5348                           	opt stack 0
  5349                           tosu	equ	0xFFF
  5350                           tosh	equ	0xFFE
  5351                           tosl	equ	0xFFD
  5352                           pclath	equ	0xFFA
  5353                           tblptru	equ	0xFF8
  5354                           tblptrh	equ	0xFF7
  5355                           tblptrl	equ	0xFF6
  5356                           tablat	equ	0xFF5
  5357                           prodl	equ	0xFF3
  5358                           intcon	equ	0xFF2
  5359                           postinc0	equ	0xFEE
  5360                           wreg	equ	0xFE8
  5361                           postinc2	equ	0xFDE
  5362                           postdec2	equ	0xFDD
  5363                           fsr2h	equ	0xFDA
  5364                           fsr2l	equ	0xFD9
  5365                           status	equ	0xFD8
  5366                           
  5367 ;; *************** function _Forward_Dir *****************
  5368 ;; Defined at:
  5369 ;;		line 36 in file "motor_drive.c"
  5370 ;; Parameters:    Size  Location     Type
  5371 ;;		None
  5372 ;; Auto vars:     Size  Location     Type
  5373 ;;		None
  5374 ;; Return value:  Size  Location     Type
  5375 ;;                  1    wreg      void 
  5376 ;; Registers used:
  5377 ;;		wreg, status,2, status,0, cstack
  5378 ;; Tracked objects:
  5379 ;;		On entry : 3F/0
  5380 ;;		On exit  : 30/0
  5381 ;;		Unchanged: 0/0
  5382 ;; Data sizes:     COMRAM   BANK0   BANK1   BANK2   BANK3   BANK4   BANK5   BANK6   BANK7   BANK8   BANK9  BANK10  BANK1
      +1  BANK12  BANK14
  5383 ;;      Params:         0       0       0       0       0       0       0       0       0       0       0       0       
      +0       0       0
  5384 ;;      Locals:         0       0       0       0       0       0       0       0       0       0       0       0       
      +0       0       0
  5385 ;;      Temps:          0       0       0       0       0       0       0       0       0       0       0       0       
      +0       0       0
  5386 ;;      Totals:         0       0       0       0       0       0       0       0       0       0       0       0       
      +0       0       0
  5387 ;;Total ram usage:        0 bytes
  5388 ;; Hardware stack levels used:    1
  5389 ;; Hardware stack levels required when called:    8
  5390 ;; This function calls:
  5391 ;;		_StartCounting
  5392 ;; This function is called by:
  5393 ;;		_CheckForwardButton
  5394 ;;		_CheckEndButton
  5395 ;; This function uses a non-reentrant model
  5396 ;;
  5397                           
  5398                           	psect	text40
  5399  001B90                     __ptext40:
  5400                           	opt stack 0
  5401  001B90                     _Forward_Dir:
  5402                           	opt stack 21
  5403                           
  5404                           ; BSR set to: 0
  5405                           ;motor_drive.c: 38: CWG1CON0bits.MODE = 0x2;
  5406                           
  5407                           ;incstack = 0
  5408  001B90  010F               	movlb	15	; () banked
  5409  001B92  513F               	movf	63,w,b	;volatile
  5410  001B94  0BF8               	andlw	-8
  5411  001B96  0902               	iorlw	2
  5412                           
  5413                           ;motor_drive.c: 40: if (inputSet)
  5414  001B98  D812               	call	PL50	;call to abstracted procedure
  5415  001B9A  B4D8               	btfsc	status,2,c
  5416  001B9C  0012               	return	
  5417                           
  5418                           ; BSR set to: 0
  5419                           ;motor_drive.c: 41: {
  5420                           ;motor_drive.c: 42: inputSet = 0;
  5421  001B9E  6B75               	clrf	_inputSet& (0+255),b
  5422                           
  5423                           ; BSR set to: 0
  5424                           ;motor_drive.c: 43: forwardDirection = 1;
  5425  001BA0  0E01               	movlw	1
  5426  001BA2  6F73               	movwf	_forwardDirection& (0+255),b
  5427                           
  5428                           ; BSR set to: 0
  5429                           ;motor_drive.c: 44: if(totalAngleTurned >= 360)
  5430  001BA4  D804               	call	PL34	;call to abstracted procedure
  5431  001BA6  E202 EFBA  F00E    	bnc	_StartCounting
  5432                           
  5433                           ; BSR set to: 0
  5434                           
  5435                           ;motor_drive.c: 45: {
  5436                           ;motor_drive.c: 46: do{CWG1AS0bits.CWG1SHUTDOWN = 1;} while(0);
  5437  001BAC  D005               	goto	PL48	;call to abstracted procedure
  5438  001BAE                     __end_of_Forward_Dir:
  5439                           	opt stack 0
  5440  001BAE                     PL34:
  5441                           	opt stack 21
  5442  001BAE  0E68               	movlw	104
  5443  001BB0  5C59               	subwf	_totalAngleTurned,w,c
  5444  001BB2  0E01               	movlw	1
  5445  001BB4  585A               	subwfb	_totalAngleTurned+1,w,c
  5446  001BB6  0012               	return	
  5447  001BB8                     __end_ofPL34:
  5448                           	opt stack 0
  5449  001BB8                     PL48:
  5450                           	opt stack 21
  5451  001BB8  010F               	movlb	15	; () banked
  5452  001BBA  8F41               	bsf	65,7,b	;volatile
  5453  001BBC  0012               	return	
  5454  001BBE                     __end_ofPL48:
  5455                           	opt stack 0
  5456  001BBE                     PL50:
  5457                           	opt stack 21
  5458  001BBE  6F3F               	movwf	63,b	;volatile
  5459  001BC0  0100               	movlb	0	; () banked
  5460  001BC2  5175               	movf	_inputSet& (0+255),w,b
  5461  001BC4  0012               	return	
  5462  001BC6                     __end_ofPL50:
  5463                           	opt stack 0
  5464                           tosu	equ	0xFFF
  5465                           tosh	equ	0xFFE
  5466                           tosl	equ	0xFFD
  5467                           pclath	equ	0xFFA
  5468                           tblptru	equ	0xFF8
  5469                           tblptrh	equ	0xFF7
  5470                           tblptrl	equ	0xFF6
  5471                           tablat	equ	0xFF5
  5472                           prodl	equ	0xFF3
  5473                           intcon	equ	0xFF2
  5474                           postinc0	equ	0xFEE
  5475                           wreg	equ	0xFE8
  5476                           postinc2	equ	0xFDE
  5477                           postdec2	equ	0xFDD
  5478                           fsr2h	equ	0xFDA
  5479                           fsr2l	equ	0xFD9
  5480                           status	equ	0xFD8
  5481                           
  5482 ;; *************** function _StartCounting *****************
  5483 ;; Defined at:
  5484 ;;		line 90 in file "counting_ripples.c"
  5485 ;; Parameters:    Size  Location     Type
  5486 ;;		None
  5487 ;; Auto vars:     Size  Location     Type
  5488 ;;		None
  5489 ;; Return value:  Size  Location     Type
  5490 ;;                  1    wreg      void 
  5491 ;; Registers used:
  5492 ;;		wreg, cstack
  5493 ;; Tracked objects:
  5494 ;;		On entry : 3F/0
  5495 ;;		On exit  : 3F/F
  5496 ;;		Unchanged: 0/0
  5497 ;; Data sizes:     COMRAM   BANK0   BANK1   BANK2   BANK3   BANK4   BANK5   BANK6   BANK7   BANK8   BANK9  BANK10  BANK1
      +1  BANK12  BANK14
  5498 ;;      Params:         0       0       0       0       0       0       0       0       0       0       0       0       
      +0       0       0
  5499 ;;      Locals:         0       0       0       0       0       0       0       0       0       0       0       0       
      +0       0       0
  5500 ;;      Temps:          0       0       0       0       0       0       0       0       0       0       0       0       
      +0       0       0
  5501 ;;      Totals:         0       0       0       0       0       0       0       0       0       0       0       0       
      +0       0       0
  5502 ;;Total ram usage:        0 bytes
  5503 ;; Hardware stack levels used:    1
  5504 ;; Hardware stack levels required when called:    7
  5505 ;; This function calls:
  5506 ;;		_CCP1_SetCompareCount
  5507 ;;		_TMR1_Reload
  5508 ;;		_TMR1_StartTimer
  5509 ;;		_TMR4_Period8BitSet
  5510 ;; This function is called by:
  5511 ;;		_Forward_Dir
  5512 ;;		_Reverse_Dir
  5513 ;; This function uses a non-reentrant model
  5514 ;;
  5515                           
  5516                           	psect	text41
  5517  001D74                     __ptext41:
  5518                           	opt stack 0
  5519  001D74                     _StartCounting:
  5520                           	opt stack 21
  5521                           
  5522                           ; BSR set to: 0
  5523                           
  5524                           ;incstack = 0
  5525                           ;counting_ripples.c: 92: do { LATAbits.LATA7 = 1; } while(0);
  5526  001D74  8E82               	bsf	3970,7,c	;volatile
  5527                           
  5528                           ; BSR set to: 0
  5529                           ;counting_ripples.c: 93: CCP1_SetCompareCount(compareLoadValue);
  5530  001D76  C066  F003         	movff	_compareLoadValue,CCP1_SetCompareCount@compareCount
  5531  001D7A  C067  F004         	movff	_compareLoadValue+1,CCP1_SetCompareCount@compareCount+1
  5532  001D7E  ECAA  F00F         	call	_CCP1_SetCompareCount	;wreg free
  5533                           
  5534                           ;counting_ripples.c: 94: TMR1_Reload();
  5535  001D82  ECD0  F00F         	call	_TMR1_Reload	;wreg free
  5536                           
  5537                           ; BSR set to: 0
  5538                           ;counting_ripples.c: 95: TMR4_Period8BitSet(0x3);
  5539  001D86  0E03               	movlw	3
  5540  001D88  ECEA  F00F         	call	_TMR4_Period8BitSet
  5541                           
  5542                           ;counting_ripples.c: 96: TMR1_StartTimer();
  5543  001D8C  ECF0  F00F         	call	_TMR1_StartTimer	;wreg free
  5544  001D90  010F               	movlb	15	; () banked
  5545  001D92  9F41               	bcf	65,7,b	;volatile
  5546                           
  5547                           ; BSR set to: 15
  5548  001D94  8EB6               	bsf	4022,7,c	;volatile
  5549                           
  5550                           ; BSR set to: 15
  5551  001D96  0012               	return		;funcret
  5552  001D98                     __end_of_StartCounting:
  5553                           	opt stack 0
  5554                           tosu	equ	0xFFF
  5555                           tosh	equ	0xFFE
  5556                           tosl	equ	0xFFD
  5557                           pclath	equ	0xFFA
  5558                           tblptru	equ	0xFF8
  5559                           tblptrh	equ	0xFF7
  5560                           tblptrl	equ	0xFF6
  5561                           tablat	equ	0xFF5
  5562                           prodl	equ	0xFF3
  5563                           intcon	equ	0xFF2
  5564                           postinc0	equ	0xFEE
  5565                           wreg	equ	0xFE8
  5566                           postinc2	equ	0xFDE
  5567                           postdec2	equ	0xFDD
  5568                           fsr2h	equ	0xFDA
  5569                           fsr2l	equ	0xFD9
  5570                           status	equ	0xFD8
  5571                           
  5572 ;; *************** function _TMR4_Period8BitSet *****************
  5573 ;; Defined at:
  5574 ;;		line 155 in file "mcc_generated_files/tmr4.c"
  5575 ;; Parameters:    Size  Location     Type
  5576 ;;  periodVal       1    wreg     unsigned char 
  5577 ;; Auto vars:     Size  Location     Type
  5578 ;;  periodVal       1    2[COMRAM] unsigned char 
  5579 ;; Return value:  Size  Location     Type
  5580 ;;                  1    wreg      void 
  5581 ;; Registers used:
  5582 ;;		wreg
  5583 ;; Tracked objects:
  5584 ;;		On entry : 3F/0
  5585 ;;		On exit  : 0/0
  5586 ;;		Unchanged: 0/0
  5587 ;; Data sizes:     COMRAM   BANK0   BANK1   BANK2   BANK3   BANK4   BANK5   BANK6   BANK7   BANK8   BANK9  BANK10  BANK1
      +1  BANK12  BANK14
  5588 ;;      Params:         0       0       0       0       0       0       0       0       0       0       0       0       
      +0       0       0
  5589 ;;      Locals:         1       0       0       0       0       0       0       0       0       0       0       0       
      +0       0       0
  5590 ;;      Temps:          0       0       0       0       0       0       0       0       0       0       0       0       
      +0       0       0
  5591 ;;      Totals:         1       0       0       0       0       0       0       0       0       0       0       0       
      +0       0       0
  5592 ;;Total ram usage:        1 bytes
  5593 ;; Hardware stack levels used:    1
  5594 ;; Hardware stack levels required when called:    5
  5595 ;; This function calls:
  5596 ;;		Nothing
  5597 ;; This function is called by:
  5598 ;;		_StartCounting
  5599 ;; This function uses a non-reentrant model
  5600 ;;
  5601                           
  5602                           	psect	text42
  5603  001FD4                     __ptext42:
  5604                           	opt stack 0
  5605  001FD4                     _TMR4_Period8BitSet:
  5606                           	opt stack 22
  5607                           
  5608                           ; BSR set to: 15
  5609                           ;incstack = 0
  5610                           ;TMR4_Period8BitSet@periodVal stored from wreg
  5611  001FD4  6E03               	movwf	TMR4_Period8BitSet@periodVal,c
  5612                           
  5613                           ;tmr4.c: 157: PR4 = periodVal;
  5614  001FD6  C003  FFB5         	movff	TMR4_Period8BitSet@periodVal,4021	;volatile
  5615  001FDA  0012               	return		;funcret
  5616  001FDC                     __end_of_TMR4_Period8BitSet:
  5617                           	opt stack 0
  5618                           tosu	equ	0xFFF
  5619                           tosh	equ	0xFFE
  5620                           tosl	equ	0xFFD
  5621                           pclath	equ	0xFFA
  5622                           tblptru	equ	0xFF8
  5623                           tblptrh	equ	0xFF7
  5624                           tblptrl	equ	0xFF6
  5625                           tablat	equ	0xFF5
  5626                           prodl	equ	0xFF3
  5627                           intcon	equ	0xFF2
  5628                           postinc0	equ	0xFEE
  5629                           wreg	equ	0xFE8
  5630                           postinc2	equ	0xFDE
  5631                           postdec2	equ	0xFDD
  5632                           fsr2h	equ	0xFDA
  5633                           fsr2l	equ	0xFD9
  5634                           status	equ	0xFD8
  5635                           
  5636 ;; *************** function _TMR1_StartTimer *****************
  5637 ;; Defined at:
  5638 ;;		line 98 in file "mcc_generated_files/tmr1.c"
  5639 ;; Parameters:    Size  Location     Type
  5640 ;;		None
  5641 ;; Auto vars:     Size  Location     Type
  5642 ;;		None
  5643 ;; Return value:  Size  Location     Type
  5644 ;;                  1    wreg      void 
  5645 ;; Registers used:
  5646 ;;		None
  5647 ;; Tracked objects:
  5648 ;;		On entry : 0/0
  5649 ;;		On exit  : 0/0
  5650 ;;		Unchanged: 0/0
  5651 ;; Data sizes:     COMRAM   BANK0   BANK1   BANK2   BANK3   BANK4   BANK5   BANK6   BANK7   BANK8   BANK9  BANK10  BANK1
      +1  BANK12  BANK14
  5652 ;;      Params:         0       0       0       0       0       0       0       0       0       0       0       0       
      +0       0       0
  5653 ;;      Locals:         0       0       0       0       0       0       0       0       0       0       0       0       
      +0       0       0
  5654 ;;      Temps:          0       0       0       0       0       0       0       0       0       0       0       0       
      +0       0       0
  5655 ;;      Totals:         0       0       0       0       0       0       0       0       0       0       0       0       
      +0       0       0
  5656 ;;Total ram usage:        0 bytes
  5657 ;; Hardware stack levels used:    1
  5658 ;; Hardware stack levels required when called:    5
  5659 ;; This function calls:
  5660 ;;		Nothing
  5661 ;; This function is called by:
  5662 ;;		_StartCounting
  5663 ;; This function uses a non-reentrant model
  5664 ;;
  5665                           
  5666                           	psect	text43
  5667  001FE0                     __ptext43:
  5668                           	opt stack 0
  5669  001FE0                     _TMR1_StartTimer:
  5670                           	opt stack 22
  5671                           
  5672                           ;tmr1.c: 101: T1CONbits.TMR1ON = 1;
  5673                           
  5674                           ;incstack = 0
  5675  001FE0  80CE               	bsf	4046,0,c	;volatile
  5676  001FE2  0012               	return		;funcret
  5677  001FE4                     __end_of_TMR1_StartTimer:
  5678                           	opt stack 0
  5679                           tosu	equ	0xFFF
  5680                           tosh	equ	0xFFE
  5681                           tosl	equ	0xFFD
  5682                           pclath	equ	0xFFA
  5683                           tblptru	equ	0xFF8
  5684                           tblptrh	equ	0xFF7
  5685                           tblptrl	equ	0xFF6
  5686                           tablat	equ	0xFF5
  5687                           prodl	equ	0xFF3
  5688                           intcon	equ	0xFF2
  5689                           postinc0	equ	0xFEE
  5690                           wreg	equ	0xFE8
  5691                           postinc2	equ	0xFDE
  5692                           postdec2	equ	0xFDD
  5693                           fsr2h	equ	0xFDA
  5694                           fsr2l	equ	0xFD9
  5695                           status	equ	0xFD8
  5696                           
  5697 ;; *************** function _TMR1_Reload *****************
  5698 ;; Defined at:
  5699 ;;		line 148 in file "mcc_generated_files/tmr1.c"
  5700 ;; Parameters:    Size  Location     Type
  5701 ;;		None
  5702 ;; Auto vars:     Size  Location     Type
  5703 ;;		None
  5704 ;; Return value:  Size  Location     Type
  5705 ;;                  1    wreg      void 
  5706 ;; Registers used:
  5707 ;;		cstack
  5708 ;; Tracked objects:
  5709 ;;		On entry : 3F/0
  5710 ;;		On exit  : 3F/0
  5711 ;;		Unchanged: 3F/0
  5712 ;; Data sizes:     COMRAM   BANK0   BANK1   BANK2   BANK3   BANK4   BANK5   BANK6   BANK7   BANK8   BANK9  BANK10  BANK1
      +1  BANK12  BANK14
  5713 ;;      Params:         0       0       0       0       0       0       0       0       0       0       0       0       
      +0       0       0
  5714 ;;      Locals:         0       0       0       0       0       0       0       0       0       0       0       0       
      +0       0       0
  5715 ;;      Temps:          0       0       0       0       0       0       0       0       0       0       0       0       
      +0       0       0
  5716 ;;      Totals:         0       0       0       0       0       0       0       0       0       0       0       0       
      +0       0       0
  5717 ;;Total ram usage:        0 bytes
  5718 ;; Hardware stack levels used:    1
  5719 ;; Hardware stack levels required when called:    6
  5720 ;; This function calls:
  5721 ;;		_TMR1_WriteTimer
  5722 ;; This function is called by:
  5723 ;;		_StartCounting
  5724 ;; This function uses a non-reentrant model
  5725 ;;
  5726                           
  5727                           	psect	text44
  5728  001FA0                     __ptext44:
  5729                           	opt stack 0
  5730  001FA0                     _TMR1_Reload:
  5731                           	opt stack 21
  5732                           
  5733                           ; BSR set to: 0
  5734                           ;tmr1.c: 150: TMR1_WriteTimer(timer1ReloadVal);
  5735                           
  5736                           ;incstack = 0
  5737  001FA0  C07A  F003         	movff	_timer1ReloadVal,TMR1_WriteTimer@timerVal	;volatile
  5738  001FA4  C07B  F004         	movff	_timer1ReloadVal+1,TMR1_WriteTimer@timerVal+1	;volatile
  5739  001FA8  EF5D  F00F         	goto	_TMR1_WriteTimer	;wreg free
  5740  001FAC                     __end_of_TMR1_Reload:
  5741                           	opt stack 0
  5742                           tosu	equ	0xFFF
  5743                           tosh	equ	0xFFE
  5744                           tosl	equ	0xFFD
  5745                           pclath	equ	0xFFA
  5746                           tblptru	equ	0xFF8
  5747                           tblptrh	equ	0xFF7
  5748                           tblptrl	equ	0xFF6
  5749                           tablat	equ	0xFF5
  5750                           prodl	equ	0xFF3
  5751                           intcon	equ	0xFF2
  5752                           postinc0	equ	0xFEE
  5753                           wreg	equ	0xFE8
  5754                           postinc2	equ	0xFDE
  5755                           postdec2	equ	0xFDD
  5756                           fsr2h	equ	0xFDA
  5757                           fsr2l	equ	0xFD9
  5758                           status	equ	0xFD8
  5759                           
  5760 ;; *************** function _TMR1_WriteTimer *****************
  5761 ;; Defined at:
  5762 ;;		line 126 in file "mcc_generated_files/tmr1.c"
  5763 ;; Parameters:    Size  Location     Type
  5764 ;;  timerVal        2    2[COMRAM] unsigned int 
  5765 ;; Auto vars:     Size  Location     Type
  5766 ;;		None
  5767 ;; Return value:  Size  Location     Type
  5768 ;;                  1    wreg      void 
  5769 ;; Registers used:
  5770 ;;		None
  5771 ;; Tracked objects:
  5772 ;;		On entry : 3F/0
  5773 ;;		On exit  : 3F/0
  5774 ;;		Unchanged: 3F/0
  5775 ;; Data sizes:     COMRAM   BANK0   BANK1   BANK2   BANK3   BANK4   BANK5   BANK6   BANK7   BANK8   BANK9  BANK10  BANK1
      +1  BANK12  BANK14
  5776 ;;      Params:         2       0       0       0       0       0       0       0       0       0       0       0       
      +0       0       0
  5777 ;;      Locals:         0       0       0       0       0       0       0       0       0       0       0       0       
      +0       0       0
  5778 ;;      Temps:          0       0       0       0       0       0       0       0       0       0       0       0       
      +0       0       0
  5779 ;;      Totals:         2       0       0       0       0       0       0       0       0       0       0       0       
      +0       0       0
  5780 ;;Total ram usage:        2 bytes
  5781 ;; Hardware stack levels used:    1
  5782 ;; Hardware stack levels required when called:    5
  5783 ;; This function calls:
  5784 ;;		Nothing
  5785 ;; This function is called by:
  5786 ;;		_TMR1_Reload
  5787 ;; This function uses a non-reentrant model
  5788 ;;
  5789                           
  5790                           	psect	text45
  5791  001EBA                     __ptext45:
  5792                           	opt stack 0
  5793  001EBA                     _TMR1_WriteTimer:
  5794                           	opt stack 21
  5795                           
  5796                           ; BSR set to: 0
  5797                           ;tmr1.c: 128: if (T1CONbits.nT1SYNC == 1)
  5798                           
  5799                           ; BSR set to: 0
  5800                           ;incstack = 0
  5801  001EBA  A4CE               	btfss	4046,2,c	;volatile
  5802  001EBC  D005               	goto	PL30
  5803                           
  5804                           ; BSR set to: 0
  5805                           ;tmr1.c: 129: {
  5806                           ;tmr1.c: 131: T1CONbits.TMR1ON = 0;
  5807  001EBE  90CE               	bcf	4046,0,c	;volatile
  5808                           
  5809                           ;tmr1.c: 134: TMR1H = (timerVal >> 8);
  5810                           
  5811                           ;tmr1.c: 135: TMR1L = timerVal;
  5812  001EC0  D803               	call	PL30	;call to abstracted procedure
  5813                           
  5814                           ;tmr1.c: 138: T1CONbits.TMR1ON =1;
  5815  001EC2  80CE               	bsf	4046,0,c	;volatile
  5816                           
  5817                           ;tmr1.c: 139: }
  5818  001EC4  0012               	return	
  5819  001EC6                     l442:
  5820                           
  5821                           ; BSR set to: 0
  5822                           ;tmr1.c: 140: else
  5823                           ;tmr1.c: 141: {
  5824                           ;tmr1.c: 143: TMR1H = (timerVal >> 8);
  5825                           
  5826                           ;tmr1.c: 144: TMR1L = timerVal;
  5827  001EC6  D000               	goto	PL30	;call to abstracted procedure
  5828  001EC8                     __end_of_TMR1_WriteTimer:
  5829                           	opt stack 0
  5830  001EC8                     PL30:
  5831                           	opt stack 21
  5832  001EC8  C004  FFCD         	movff	TMR1_WriteTimer@timerVal+1,4045	;volatile
  5833  001ECC  C003  FFCC         	movff	TMR1_WriteTimer@timerVal,4044	;volatile
  5834  001ED0  0012               	return	
  5835  001ED2                     __end_ofPL30:
  5836                           	opt stack 0
  5837                           tosu	equ	0xFFF
  5838                           tosh	equ	0xFFE
  5839                           tosl	equ	0xFFD
  5840                           pclath	equ	0xFFA
  5841                           tblptru	equ	0xFF8
  5842                           tblptrh	equ	0xFF7
  5843                           tblptrl	equ	0xFF6
  5844                           tablat	equ	0xFF5
  5845                           prodl	equ	0xFF3
  5846                           intcon	equ	0xFF2
  5847                           postinc0	equ	0xFEE
  5848                           wreg	equ	0xFE8
  5849                           postinc2	equ	0xFDE
  5850                           postdec2	equ	0xFDD
  5851                           fsr2h	equ	0xFDA
  5852                           fsr2l	equ	0xFD9
  5853                           status	equ	0xFD8
  5854                           
  5855 ;; *************** function _CCP1_SetCompareCount *****************
  5856 ;; Defined at:
  5857 ;;		line 81 in file "mcc_generated_files/ccp1.c"
  5858 ;; Parameters:    Size  Location     Type
  5859 ;;  compareCount    2    2[COMRAM] unsigned int 
  5860 ;; Auto vars:     Size  Location     Type
  5861 ;;  module          2    4[COMRAM] struct CCPR1Reg_tag
  5862 ;; Return value:  Size  Location     Type
  5863 ;;                  1    wreg      void 
  5864 ;; Registers used:
  5865 ;;		None
  5866 ;; Tracked objects:
  5867 ;;		On entry : 3F/0
  5868 ;;		On exit  : 3F/0
  5869 ;;		Unchanged: 3F/0
  5870 ;; Data sizes:     COMRAM   BANK0   BANK1   BANK2   BANK3   BANK4   BANK5   BANK6   BANK7   BANK8   BANK9  BANK10  BANK1
      +1  BANK12  BANK14
  5871 ;;      Params:         2       0       0       0       0       0       0       0       0       0       0       0       
      +0       0       0
  5872 ;;      Locals:         2       0       0       0       0       0       0       0       0       0       0       0       
      +0       0       0
  5873 ;;      Temps:          0       0       0       0       0       0       0       0       0       0       0       0       
      +0       0       0
  5874 ;;      Totals:         4       0       0       0       0       0       0       0       0       0       0       0       
      +0       0       0
  5875 ;;Total ram usage:        4 bytes
  5876 ;; Hardware stack levels used:    1
  5877 ;; Hardware stack levels required when called:    5
  5878 ;; This function calls:
  5879 ;;		Nothing
  5880 ;; This function is called by:
  5881 ;;		_StartCounting
  5882 ;; This function uses a non-reentrant model
  5883 ;;
  5884                           
  5885                           	psect	text46
  5886  001F54                     __ptext46:
  5887                           	opt stack 0
  5888  001F54                     _CCP1_SetCompareCount:
  5889                           	opt stack 22
  5890                           
  5891                           ; BSR set to: 0
  5892                           ;ccp1.c: 83: CCP1_PERIOD_REG_T module;
  5893                           ;ccp1.c: 86: module.ccpr1_16Bit = compareCount;
  5894                           
  5895                           ; BSR set to: 0
  5896                           ;incstack = 0
  5897  001F54  C003  F005         	movff	CCP1_SetCompareCount@compareCount,CCP1_SetCompareCount@module
  5898  001F58  C004  F006         	movff	CCP1_SetCompareCount@compareCount+1,CCP1_SetCompareCount@module+1
  5899                           
  5900                           ;ccp1.c: 88: CCPR1L = module.ccpr1l;
  5901  001F5C  C005  FFA9         	movff	CCP1_SetCompareCount@module,4009	;volatile
  5902                           
  5903                           ;ccp1.c: 89: CCPR1H = module.ccpr1h;
  5904  001F60  C006  FFAA         	movff	CCP1_SetCompareCount@module+1,4010	;volatile
  5905                           
  5906                           ; BSR set to: 0
  5907  001F64  0012               	return		;funcret
  5908  001F66                     __end_of_CCP1_SetCompareCount:
  5909                           	opt stack 0
  5910                           tosu	equ	0xFFF
  5911                           tosh	equ	0xFFE
  5912                           tosl	equ	0xFFD
  5913                           pclath	equ	0xFFA
  5914                           tblptru	equ	0xFF8
  5915                           tblptrh	equ	0xFF7
  5916                           tblptrl	equ	0xFF6
  5917                           tablat	equ	0xFF5
  5918                           prodl	equ	0xFF3
  5919                           intcon	equ	0xFF2
  5920                           postinc0	equ	0xFEE
  5921                           wreg	equ	0xFE8
  5922                           postinc2	equ	0xFDE
  5923                           postdec2	equ	0xFDD
  5924                           fsr2h	equ	0xFDA
  5925                           fsr2l	equ	0xFD9
  5926                           status	equ	0xFD8
  5927                           
  5928 ;; *************** function _ExpectedRippleCountToEndPoint *****************
  5929 ;; Defined at:
  5930 ;;		line 78 in file "counting_ripples.c"
  5931 ;; Parameters:    Size  Location     Type
  5932 ;;		None
  5933 ;; Auto vars:     Size  Location     Type
  5934 ;;		None
  5935 ;; Return value:  Size  Location     Type
  5936 ;;                  1    wreg      void 
  5937 ;; Registers used:
  5938 ;;		wreg, fsr2l, fsr2h, status,2, status,0, cstack
  5939 ;; Tracked objects:
  5940 ;;		On entry : 0/0
  5941 ;;		On exit  : 3F/0
  5942 ;;		Unchanged: 0/0
  5943 ;; Data sizes:     COMRAM   BANK0   BANK1   BANK2   BANK3   BANK4   BANK5   BANK6   BANK7   BANK8   BANK9  BANK10  BANK1
      +1  BANK12  BANK14
  5944 ;;      Params:         0       0       0       0       0       0       0       0       0       0       0       0       
      +0       0       0
  5945 ;;      Locals:         3       0       0       0       0       0       0       0       0       0       0       0       
      +0       0       0
  5946 ;;      Temps:          0       0       0       0       0       0       0       0       0       0       0       0       
      +0       0       0
  5947 ;;      Totals:         3       0       0       0       0       0       0       0       0       0       0       0       
      +0       0       0
  5948 ;;Total ram usage:        3 bytes
  5949 ;; Hardware stack levels used:    1
  5950 ;; Hardware stack levels required when called:    9
  5951 ;; This function calls:
  5952 ;;		___ftadd
  5953 ;;		___ftmul
  5954 ;;		___fttol
  5955 ;;		___lwtoft
  5956 ;;		_round
  5957 ;; This function is called by:
  5958 ;;		_CheckEndButton
  5959 ;; This function uses a non-reentrant model
  5960 ;;
  5961                           
  5962                           	psect	text47
  5963  00150E                     __ptext47:
  5964                           	opt stack 0
  5965  00150E                     _ExpectedRippleCountToEndPoint:
  5966                           	opt stack 20
  5967                           
  5968                           ;counting_ripples.c: 80: angleDesired = 360 - remainingAngle;
  5969                           
  5970                           ; BSR set to: 0
  5971                           ;incstack = 0
  5972  00150E  0100               	movlb	0	; () banked
  5973  001510  5181               	movf	_remainingAngle& (0+255),w,b
  5974  001512  0868               	sublw	104
  5975  001514  6F6A               	movwf	_angleDesired& (0+255),b
  5976  001516  5182               	movf	(_remainingAngle+1)& (0+255),w,b
  5977  001518  A0D8               	btfss	status,0,c
  5978  00151A  2AE8               	incf	wreg,f,c
  5979  00151C  0801               	sublw	1
  5980  00151E  6F6B               	movwf	(_angleDesired+1)& (0+255),b
  5981                           
  5982                           ; BSR set to: 0
  5983                           ;counting_ripples.c: 81: expectedRippleCount = (angleDesired * round(((float)(1*250* 3)/
      +                          180))) + 10;
  5984  001520  EC3D  F00A         	call	PL2	;call to abstracted procedure
  5985  001524  ECC8  F00A         	call	_round	;wreg free
  5986  001528  ECE0  F00B         	call	PL6	;call to abstracted procedure
  5987  00152C  D82C               	call	PL40	;call to abstracted procedure
  5988  00152E  ECCC  F00E         	call	___lwtoft	;wreg free
  5989  001532  ECD9  F00B         	call	PL4	;call to abstracted procedure
  5990  001536  ECD4  F008         	call	___ftmul	;wreg free
  5991  00153A  C047  F056         	movff	?___ftmul,_ExpectedRippleCountToEndPoint$3522
  5992  00153E  C048  F057         	movff	?___ftmul+1,_ExpectedRippleCountToEndPoint$3522+1
  5993  001542  C049  F058         	movff	?___ftmul+2,_ExpectedRippleCountToEndPoint$3522+2
  5994                           
  5995                           ;counting_ripples.c: 81: expectedRippleCount = (angleDesired * round(((float)(1*250* 3)/
      +                          180))) + 10;
  5996  001546  D815               	call	PL26	;call to abstracted procedure
  5997  001548  C056  F00E         	movff	_ExpectedRippleCountToEndPoint$3522,___ftadd@f1
  5998  00154C  C057  F00F         	movff	_ExpectedRippleCountToEndPoint$3522+1,___ftadd@f1+1
  5999  001550  C058  F010         	movff	_ExpectedRippleCountToEndPoint$3522+2,___ftadd@f1+2
  6000  001554  ECB5  F007         	call	___ftadd	;wreg free
  6001  001558  D805               	call	PL20	;call to abstracted procedure
  6002  00155A  EC38  F009         	call	___fttol	;wreg free
  6003  00155E  ECE7  F00B         	call	PL14	;call to abstracted procedure
  6004                           
  6005                           ;counting_ripples.c: 82: dummy = 1;
  6006                           
  6007                           ; BSR set to: 0
  6008  001562  D00D               	goto	PL32	;call to abstracted procedure
  6009  001564                     __end_of_ExpectedRippleCountToEndPoint:
  6010                           	opt stack 0
  6011  001564                     PL20:
  6012                           	opt stack 20
  6013  001564  C00E  F01A         	movff	?___ftadd,___fttol@f1
  6014  001568  C00F  F01B         	movff	?___ftadd+1,___fttol@f1+1
  6015  00156C  C010  F01C         	movff	?___ftadd+2,___fttol@f1+2
  6016  001570  0012               	return	
  6017  001572                     __end_ofPL20:
  6018                           	opt stack 0
  6019  001572                     PL26:
  6020                           	opt stack 20
  6021  001572  6A11               	clrf	___ftadd@f2,c
  6022  001574  0E20               	movlw	32
  6023  001576  6E12               	movwf	___ftadd@f2+1,c
  6024  001578  0E41               	movlw	65
  6025  00157A  6E13               	movwf	___ftadd@f2+2,c
  6026  00157C  0C41               	retlw	65
  6027  00157E                     __end_ofPL26:
  6028                           	opt stack 0
  6029  00157E                     PL32:
  6030                           	opt stack 20
  6031  00157E  0E01               	movlw	1
  6032  001580  0100               	movlb	0	; () banked
  6033  001582  6F71               	movwf	_dummy& (0+255),b
  6034  001584  0C01               	retlw	1	;funcret
  6035  001586                     __end_ofPL32:
  6036                           	opt stack 0
  6037  001586                     PL40:
  6038                           	opt stack 20
  6039  001586  C06A  F00B         	movff	_angleDesired,___lwtoft@c
  6040  00158A  C06B  F00C         	movff	_angleDesired+1,___lwtoft@c+1
  6041  00158E  0012               	return	
  6042  001590                     __end_ofPL40:
  6043                           	opt stack 0
  6044                           tosu	equ	0xFFF
  6045                           tosh	equ	0xFFE
  6046                           tosl	equ	0xFFD
  6047                           pclath	equ	0xFFA
  6048                           tblptru	equ	0xFF8
  6049                           tblptrh	equ	0xFF7
  6050                           tblptrl	equ	0xFF6
  6051                           tablat	equ	0xFF5
  6052                           prodl	equ	0xFF3
  6053                           intcon	equ	0xFF2
  6054                           postinc0	equ	0xFEE
  6055                           wreg	equ	0xFE8
  6056                           postinc2	equ	0xFDE
  6057                           postdec2	equ	0xFDD
  6058                           fsr2h	equ	0xFDA
  6059                           fsr2l	equ	0xFD9
  6060                           status	equ	0xFD8
  6061                           
  6062 ;; *************** function _ExpectedRippleCountRemainingAngle *****************
  6063 ;; Defined at:
  6064 ;;		line 66 in file "counting_ripples.c"
  6065 ;; Parameters:    Size  Location     Type
  6066 ;;		None
  6067 ;; Auto vars:     Size  Location     Type
  6068 ;;		None
  6069 ;; Return value:  Size  Location     Type
  6070 ;;                  1    wreg      void 
  6071 ;; Registers used:
  6072 ;;		wreg, fsr2l, fsr2h, status,2, status,0, cstack
  6073 ;; Tracked objects:
  6074 ;;		On entry : 0/0
  6075 ;;		On exit  : 0/0
  6076 ;;		Unchanged: 0/0
  6077 ;; Data sizes:     COMRAM   BANK0   BANK1   BANK2   BANK3   BANK4   BANK5   BANK6   BANK7   BANK8   BANK9  BANK10  BANK1
      +1  BANK12  BANK14
  6078 ;;      Params:         0       0       0       0       0       0       0       0       0       0       0       0       
      +0       0       0
  6079 ;;      Locals:         3       0       0       0       0       0       0       0       0       0       0       0       
      +0       0       0
  6080 ;;      Temps:          0       0       0       0       0       0       0       0       0       0       0       0       
      +0       0       0
  6081 ;;      Totals:         3       0       0       0       0       0       0       0       0       0       0       0       
      +0       0       0
  6082 ;;Total ram usage:        3 bytes
  6083 ;; Hardware stack levels used:    1
  6084 ;; Hardware stack levels required when called:    9
  6085 ;; This function calls:
  6086 ;;		___ftmul
  6087 ;;		___fttol
  6088 ;;		___lwtoft
  6089 ;;		_round
  6090 ;; This function is called by:
  6091 ;;		_ReadInput
  6092 ;;		_ResumeMotor
  6093 ;;		_CheckHomeButton
  6094 ;;		_CheckEndButton
  6095 ;; This function uses a non-reentrant model
  6096 ;;
  6097                           
  6098                           	psect	text48
  6099  001A6E                     __ptext48:
  6100                           	opt stack 0
  6101  001A6E                     _ExpectedRippleCountRemainingAngle:
  6102                           	opt stack 0
  6103                           
  6104                           ;counting_ripples.c: 68: expectedRippleCount = remainingAngle * round(((float)(1*250* 3)
      +                          /180));
  6105                           
  6106                           ; BSR set to: 0
  6107                           ;incstack = 0
  6108  001A6E  EC3D  F00A         	call	PL2	;call to abstracted procedure
  6109  001A72  ECC8  F00A         	call	_round	;wreg free
  6110  001A76  ECE0  F00B         	call	PL6	;call to abstracted procedure
  6111  001A7A  C081  F00B         	movff	_remainingAngle,___lwtoft@c
  6112  001A7E  C082  F00C         	movff	_remainingAngle+1,___lwtoft@c+1
  6113  001A82  ECCC  F00E         	call	___lwtoft	;wreg free
  6114  001A86  ECD9  F00B         	call	PL4	;call to abstracted procedure
  6115  001A8A  ECD4  F008         	call	___ftmul	;wreg free
  6116  001A8E  C047  F056         	movff	?___ftmul,_ExpectedRippleCountRemainingAngle$3520
  6117  001A92  C048  F057         	movff	?___ftmul+1,_ExpectedRippleCountRemainingAngle$3520+1
  6118  001A96  C049  F058         	movff	?___ftmul+2,_ExpectedRippleCountRemainingAngle$3520+2
  6119                           
  6120                           ;counting_ripples.c: 68: expectedRippleCount = remainingAngle * round(((float)(1*250* 3)
      +                          /180));
  6121  001A9A  C056  F01A         	movff	_ExpectedRippleCountRemainingAngle$3520,___fttol@f1
  6122  001A9E  C057  F01B         	movff	_ExpectedRippleCountRemainingAngle$3520+1,___fttol@f1+1
  6123  001AA2  C058  F01C         	movff	_ExpectedRippleCountRemainingAngle$3520+2,___fttol@f1+2
  6124  001AA6  EC38  F009         	call	___fttol	;wreg free
  6125  001AAA  EFE7  F00B         	goto	PL14	;call to abstracted procedure
  6126  001AAE                     __end_of_ExpectedRippleCountRemainingAngle:
  6127                           	opt stack 0
  6128                           tosu	equ	0xFFF
  6129                           tosh	equ	0xFFE
  6130                           tosl	equ	0xFFD
  6131                           pclath	equ	0xFFA
  6132                           tblptru	equ	0xFF8
  6133                           tblptrh	equ	0xFF7
  6134                           tblptrl	equ	0xFF6
  6135                           tablat	equ	0xFF5
  6136                           prodl	equ	0xFF3
  6137                           intcon	equ	0xFF2
  6138                           postinc0	equ	0xFEE
  6139                           wreg	equ	0xFE8
  6140                           postinc2	equ	0xFDE
  6141                           postdec2	equ	0xFDD
  6142                           fsr2h	equ	0xFDA
  6143                           fsr2l	equ	0xFD9
  6144                           status	equ	0xFD8
  6145                           
  6146 ;; *************** function _round *****************
  6147 ;; Defined at:
  6148 ;;		line 6 in file "C:\Program Files (x86)\Microchip\xc8\v1.45\sources\common\round.c"
  6149 ;; Parameters:    Size  Location     Type
  6150 ;;  x               3   64[COMRAM] void 
  6151 ;; Auto vars:     Size  Location     Type
  6152 ;;  f               3   67[COMRAM] void 
  6153 ;; Return value:  Size  Location     Type
  6154 ;;                  3   64[COMRAM] void 
  6155 ;; Registers used:
  6156 ;;		wreg, fsr2l, fsr2h, status,2, status,0, cstack
  6157 ;; Tracked objects:
  6158 ;;		On entry : 0/0
  6159 ;;		On exit  : 0/0
  6160 ;;		Unchanged: 0/0
  6161 ;; Data sizes:     COMRAM   BANK0   BANK1   BANK2   BANK3   BANK4   BANK5   BANK6   BANK7   BANK8   BANK9  BANK10  BANK1
      +1  BANK12  BANK14
  6162 ;;      Params:         3       0       0       0       0       0       0       0       0       0       0       0       
      +0       0       0
  6163 ;;      Locals:         3       0       0       0       0       0       0       0       0       0       0       0       
      +0       0       0
  6164 ;;      Temps:          0       0       0       0       0       0       0       0       0       0       0       0       
      +0       0       0
  6165 ;;      Totals:         6       0       0       0       0       0       0       0       0       0       0       0       
      +0       0       0
  6166 ;;Total ram usage:        6 bytes
  6167 ;; Hardware stack levels used:    1
  6168 ;; Hardware stack levels required when called:    8
  6169 ;; This function calls:
  6170 ;;		___ftadd
  6171 ;;		___ftsub
  6172 ;;		_trunc
  6173 ;; This function is called by:
  6174 ;;		_ReadInput
  6175 ;;		_ExpectedRippleCountRemainingAngle
  6176 ;;		_ExpectedRippleCountToHome
  6177 ;;		_ExpectedRippleCountToEndPoint
  6178 ;;		_GetAngleTurned
  6179 ;; This function uses a non-reentrant model
  6180 ;;
  6181                           
  6182                           	psect	text49
  6183  001590                     __ptext49:
  6184                           	opt stack 0
  6185  001590                     _round:
  6186                           	opt stack 20
  6187                           
  6188                           ;incstack = 0
  6189  001590  C041  F03B         	movff	round@x,___ftsub@f1
  6190  001594  C042  F03C         	movff	round@x+1,___ftsub@f1+1
  6191  001598  C043  F03D         	movff	round@x+2,___ftsub@f1+2
  6192  00159C  D82E               	call	PL18	;call to abstracted procedure
  6193  00159E  EC3F  F00B         	call	_trunc	;wreg free
  6194  0015A2  C033  F03E         	movff	?_trunc,___ftsub@f2
  6195  0015A6  C034  F03F         	movff	?_trunc+1,___ftsub@f2+1
  6196  0015AA  C035  F040         	movff	?_trunc+2,___ftsub@f2+2
  6197  0015AE  ECE3  F00D         	call	___ftsub	;wreg free
  6198  0015B2  C03B  F044         	movff	?___ftsub,round@f
  6199  0015B6  C03C  F045         	movff	?___ftsub+1,round@f+1
  6200  0015BA  C03D  F046         	movff	?___ftsub+2,round@f+2
  6201  0015BE  C041  F00E         	movff	round@x,___ftadd@f1
  6202  0015C2  C042  F00F         	movff	round@x+1,___ftadd@f1+1
  6203  0015C6  C043  F010         	movff	round@x+2,___ftadd@f1+2
  6204  0015CA  C044  F011         	movff	round@f,___ftadd@f2
  6205  0015CE  C045  F012         	movff	round@f+1,___ftadd@f2+1
  6206  0015D2  C046  F013         	movff	round@f+2,___ftadd@f2+2
  6207  0015D6  ECB5  F007         	call	___ftadd	;wreg free
  6208  0015DA  C00E  F041         	movff	?___ftadd,round@x
  6209  0015DE  C00F  F042         	movff	?___ftadd+1,round@x+1
  6210  0015E2  C010  F043         	movff	?___ftadd+2,round@x+2
  6211  0015E6  D809               	call	PL18	;call to abstracted procedure
  6212  0015E8  EC3F  F00B         	call	_trunc	;wreg free
  6213  0015EC  C033  F041         	movff	?_trunc,?_round
  6214  0015F0  C034  F042         	movff	?_trunc+1,?_round+1
  6215  0015F4  C035  F043         	movff	?_trunc+2,?_round+2
  6216  0015F8  0012               	return		;funcret
  6217  0015FA                     __end_of_round:
  6218                           	opt stack 0
  6219  0015FA                     PL18:
  6220                           	opt stack 20
  6221  0015FA  C041  F033         	movff	round@x,trunc@x
  6222  0015FE  C042  F034         	movff	round@x+1,trunc@x+1
  6223  001602  C043  F035         	movff	round@x+2,trunc@x+2
  6224  001606  0012               	return	
  6225  001608                     __end_ofPL18:
  6226                           	opt stack 0
  6227                           tosu	equ	0xFFF
  6228                           tosh	equ	0xFFE
  6229                           tosl	equ	0xFFD
  6230                           pclath	equ	0xFFA
  6231                           tblptru	equ	0xFF8
  6232                           tblptrh	equ	0xFF7
  6233                           tblptrl	equ	0xFF6
  6234                           tablat	equ	0xFF5
  6235                           prodl	equ	0xFF3
  6236                           intcon	equ	0xFF2
  6237                           postinc0	equ	0xFEE
  6238                           wreg	equ	0xFE8
  6239                           postinc2	equ	0xFDE
  6240                           postdec2	equ	0xFDD
  6241                           fsr2h	equ	0xFDA
  6242                           fsr2l	equ	0xFD9
  6243                           status	equ	0xFD8
  6244                           
  6245 ;; *************** function _trunc *****************
  6246 ;; Defined at:
  6247 ;;		line 13 in file "C:\Program Files (x86)\Microchip\xc8\v1.45\sources\common\trunc.c"
  6248 ;; Parameters:    Size  Location     Type
  6249 ;;  x               3   50[COMRAM] void 
  6250 ;; Auto vars:     Size  Location     Type
  6251 ;;  i               3   53[COMRAM] void 
  6252 ;;  expon           2   56[COMRAM] int 
  6253 ;; Return value:  Size  Location     Type
  6254 ;;                  3   50[COMRAM] int 
  6255 ;; Registers used:
  6256 ;;		wreg, fsr2l, fsr2h, status,2, status,0, cstack
  6257 ;; Tracked objects:
  6258 ;;		On entry : 0/0
  6259 ;;		On exit  : 0/0
  6260 ;;		Unchanged: 0/0
  6261 ;; Data sizes:     COMRAM   BANK0   BANK1   BANK2   BANK3   BANK4   BANK5   BANK6   BANK7   BANK8   BANK9  BANK10  BANK1
      +1  BANK12  BANK14
  6262 ;;      Params:         3       0       0       0       0       0       0       0       0       0       0       0       
      +0       0       0
  6263 ;;      Locals:         5       0       0       0       0       0       0       0       0       0       0       0       
      +0       0       0
  6264 ;;      Temps:          0       0       0       0       0       0       0       0       0       0       0       0       
      +0       0       0
  6265 ;;      Totals:         8       0       0       0       0       0       0       0       0       0       0       0       
      +0       0       0
  6266 ;;Total ram usage:        8 bytes
  6267 ;; Hardware stack levels used:    1
  6268 ;; Hardware stack levels required when called:    7
  6269 ;; This function calls:
  6270 ;;		___altoft
  6271 ;;		___fttol
  6272 ;;		_frexp
  6273 ;; This function is called by:
  6274 ;;		_round
  6275 ;; This function uses a non-reentrant model
  6276 ;;
  6277                           
  6278                           	psect	text50
  6279  00167E                     __ptext50:
  6280                           	opt stack 0
  6281  00167E                     _trunc:
  6282                           	opt stack 20
  6283                           
  6284                           ;incstack = 0
  6285  00167E  C033  F003         	movff	trunc@x,frexp@value
  6286  001682  C034  F004         	movff	trunc@x+1,frexp@value+1
  6287  001686  C035  F005         	movff	trunc@x+2,frexp@value+2
  6288  00168A  0E39               	movlw	low trunc@expon
  6289  00168C  6E06               	movwf	frexp@eptr,c
  6290  00168E  EC55  F00C         	call	_frexp	;wreg free
  6291  001692  AE3A               	btfss	trunc@expon+1,7,c
  6292  001694  D004               	goto	l4038
  6293  001696  6A33               	clrf	?_trunc,c
  6294  001698  6A34               	clrf	?_trunc+1,c
  6295  00169A  6A35               	clrf	?_trunc+2,c
  6296  00169C  0012               	return	
  6297  00169E                     l4038:
  6298  00169E  503A               	movf	trunc@expon+1,w,c
  6299  0016A0  E103               	bnz	u2780
  6300  0016A2  0E15               	movlw	21
  6301  0016A4  5C39               	subwf	trunc@expon,w,c
  6302  0016A6  E307               	bnc	l4042
  6303  0016A8                     u2780:
  6304  0016A8  C033  F033         	movff	trunc@x,?_trunc
  6305  0016AC  C034  F034         	movff	trunc@x+1,?_trunc+1
  6306  0016B0  C035  F035         	movff	trunc@x+2,?_trunc+2
  6307  0016B4  0012               	return	
  6308  0016B6                     l4042:
  6309  0016B6  C033  F01A         	movff	trunc@x,___fttol@f1
  6310  0016BA  C034  F01B         	movff	trunc@x+1,___fttol@f1+1
  6311  0016BE  C035  F01C         	movff	trunc@x+2,___fttol@f1+2
  6312  0016C2  EC38  F009         	call	___fttol	;wreg free
  6313  0016C6  C01A  F029         	movff	?___fttol,___altoft@c
  6314  0016CA  C01B  F02A         	movff	?___fttol+1,___altoft@c+1
  6315  0016CE  C01C  F02B         	movff	?___fttol+2,___altoft@c+2
  6316  0016D2  C01D  F02C         	movff	?___fttol+3,___altoft@c+3
  6317  0016D6  EC22  F00C         	call	___altoft	;wreg free
  6318  0016DA  C029  F036         	movff	?___altoft,trunc@i
  6319  0016DE  C02A  F037         	movff	?___altoft+1,trunc@i+1
  6320  0016E2  C02B  F038         	movff	?___altoft+2,trunc@i+2
  6321  0016E6  C036  F033         	movff	trunc@i,?_trunc
  6322  0016EA  C037  F034         	movff	trunc@i+1,?_trunc+1
  6323  0016EE  C038  F035         	movff	trunc@i+2,?_trunc+2
  6324  0016F2  0012               	return		;funcret
  6325  0016F4                     __end_of_trunc:
  6326                           	opt stack 0
  6327                           tosu	equ	0xFFF
  6328                           tosh	equ	0xFFE
  6329                           tosl	equ	0xFFD
  6330                           pclath	equ	0xFFA
  6331                           tblptru	equ	0xFF8
  6332                           tblptrh	equ	0xFF7
  6333                           tblptrl	equ	0xFF6
  6334                           tablat	equ	0xFF5
  6335                           prodl	equ	0xFF3
  6336                           intcon	equ	0xFF2
  6337                           postinc0	equ	0xFEE
  6338                           wreg	equ	0xFE8
  6339                           postinc2	equ	0xFDE
  6340                           postdec2	equ	0xFDD
  6341                           fsr2h	equ	0xFDA
  6342                           fsr2l	equ	0xFD9
  6343                           status	equ	0xFD8
  6344                           
  6345 ;; *************** function _frexp *****************
  6346 ;; Defined at:
  6347 ;;		line 254 in file "C:\Program Files (x86)\Microchip\xc8\v1.45\sources\common\frexp.c"
  6348 ;; Parameters:    Size  Location     Type
  6349 ;;  value           3    2[COMRAM] int 
  6350 ;;  eptr            1    5[COMRAM] PTR int 
  6351 ;;		 -> trunc@expon(2), 
  6352 ;; Auto vars:     Size  Location     Type
  6353 ;;		None
  6354 ;; Return value:  Size  Location     Type
  6355 ;;                  3    2[COMRAM] PTR int 
  6356 ;; Registers used:
  6357 ;;		wreg, fsr2l, fsr2h, status,2, status,0
  6358 ;; Tracked objects:
  6359 ;;		On entry : 0/0
  6360 ;;		On exit  : 0/0
  6361 ;;		Unchanged: 0/0
  6362 ;; Data sizes:     COMRAM   BANK0   BANK1   BANK2   BANK3   BANK4   BANK5   BANK6   BANK7   BANK8   BANK9  BANK10  BANK1
      +1  BANK12  BANK14
  6363 ;;      Params:         4       0       0       0       0       0       0       0       0       0       0       0       
      +0       0       0
  6364 ;;      Locals:         0       0       0       0       0       0       0       0       0       0       0       0       
      +0       0       0
  6365 ;;      Temps:          2       0       0       0       0       0       0       0       0       0       0       0       
      +0       0       0
  6366 ;;      Totals:         6       0       0       0       0       0       0       0       0       0       0       0       
      +0       0       0
  6367 ;;Total ram usage:        6 bytes
  6368 ;; Hardware stack levels used:    1
  6369 ;; Hardware stack levels required when called:    5
  6370 ;; This function calls:
  6371 ;;		Nothing
  6372 ;; This function is called by:
  6373 ;;		_trunc
  6374 ;; This function uses a non-reentrant model
  6375 ;;
  6376                           
  6377                           	psect	text51
  6378  0018AA                     __ptext51:
  6379                           	opt stack 0
  6380  0018AA                     _frexp:
  6381                           	opt stack 21
  6382                           
  6383                           ;incstack = 0
  6384  0018AA  5003               	movf	frexp@value,w,c
  6385  0018AC  1004               	iorwf	frexp@value+1,w,c
  6386  0018AE  1005               	iorwf	frexp@value+2,w,c
  6387  0018B0  E106               	bnz	l4014
  6388  0018B2  5006               	movf	frexp@eptr,w,c
  6389  0018B4  6ED9               	movwf	fsr2l,c
  6390  0018B6  6ADA               	clrf	fsr2h,c
  6391  0018B8  6ADE               	clrf	postinc2,c
  6392  0018BA  6ADD               	clrf	postdec2,c
  6393  0018BC  0C00               	retlw	0
  6394  0018BE                     l4014:
  6395  0018BE  5005               	movf	frexp@value+2,w,c
  6396  0018C0  0B7F               	andlw	127
  6397  0018C2  6E07               	movwf	??_frexp& (0+255),c
  6398  0018C4  6A08               	clrf	(??_frexp+1)& (0+255),c
  6399  0018C6  90D8               	bcf	status,0,c
  6400  0018C8  3607               	rlcf	??_frexp,f,c
  6401  0018CA  3608               	rlcf	??_frexp+1,f,c
  6402  0018CC  5006               	movf	frexp@eptr,w,c
  6403  0018CE  6ED9               	movwf	fsr2l,c
  6404  0018D0  6ADA               	clrf	fsr2h,c
  6405  0018D2  C007  FFDE         	movff	??_frexp,postinc2
  6406  0018D6  C008  FFDD         	movff	??_frexp+1,postdec2
  6407  0018DA  5006               	movf	frexp@eptr,w,c
  6408  0018DC  6ED9               	movwf	fsr2l,c
  6409  0018DE  6ADA               	clrf	fsr2h,c
  6410  0018E0  0E01               	movlw	1
  6411  0018E2  AE04               	btfss	frexp@value+1,7,c
  6412  0018E4  0E00               	movlw	0
  6413  0018E6  12DE               	iorwf	postinc2,f,c
  6414  0018E8  0E00               	movlw	0
  6415  0018EA  12DD               	iorwf	postdec2,f,c
  6416  0018EC  5006               	movf	frexp@eptr,w,c
  6417  0018EE  6ED9               	movwf	fsr2l,c
  6418  0018F0  6ADA               	clrf	fsr2h,c
  6419  0018F2  0E82               	movlw	130
  6420  0018F4  26DE               	addwf	postinc2,f,c
  6421  0018F6  0EFF               	movlw	255
  6422  0018F8  22DD               	addwfc	postdec2,f,c
  6423  0018FA  5005               	movf	frexp@value+2,w,c
  6424  0018FC  0B80               	andlw	-128
  6425  0018FE  093F               	iorlw	63
  6426  001900  6E05               	movwf	frexp@value+2,c
  6427  001902  9E04               	bcf	frexp@value+1,7,c
  6428  001904  0012               	return		;funcret
  6429  001906                     __end_of_frexp:
  6430                           	opt stack 0
  6431                           tosu	equ	0xFFF
  6432                           tosh	equ	0xFFE
  6433                           tosl	equ	0xFFD
  6434                           pclath	equ	0xFFA
  6435                           tblptru	equ	0xFF8
  6436                           tblptrh	equ	0xFF7
  6437                           tblptrl	equ	0xFF6
  6438                           tablat	equ	0xFF5
  6439                           prodl	equ	0xFF3
  6440                           intcon	equ	0xFF2
  6441                           postinc0	equ	0xFEE
  6442                           wreg	equ	0xFE8
  6443                           postinc2	equ	0xFDE
  6444                           postdec2	equ	0xFDD
  6445                           fsr2h	equ	0xFDA
  6446                           fsr2l	equ	0xFD9
  6447                           status	equ	0xFD8
  6448                           
  6449 ;; *************** function ___fttol *****************
  6450 ;; Defined at:
  6451 ;;		line 44 in file "C:\Program Files (x86)\Microchip\xc8\v1.45\sources\common\fttol.c"
  6452 ;; Parameters:    Size  Location     Type
  6453 ;;  f1              3   25[COMRAM] float 
  6454 ;; Auto vars:     Size  Location     Type
  6455 ;;  lval            4   35[COMRAM] unsigned long 
  6456 ;;  exp1            1   39[COMRAM] unsigned char 
  6457 ;;  sign1           1   34[COMRAM] unsigned char 
  6458 ;; Return value:  Size  Location     Type
  6459 ;;                  4   25[COMRAM] long 
  6460 ;; Registers used:
  6461 ;;		wreg, status,2, status,0
  6462 ;; Tracked objects:
  6463 ;;		On entry : 0/0
  6464 ;;		On exit  : 0/0
  6465 ;;		Unchanged: 0/0
  6466 ;; Data sizes:     COMRAM   BANK0   BANK1   BANK2   BANK3   BANK4   BANK5   BANK6   BANK7   BANK8   BANK9  BANK10  BANK1
      +1  BANK12  BANK14
  6467 ;;      Params:         4       0       0       0       0       0       0       0       0       0       0       0       
      +0       0       0
  6468 ;;      Locals:         6       0       0       0       0       0       0       0       0       0       0       0       
      +0       0       0
  6469 ;;      Temps:          5       0       0       0       0       0       0       0       0       0       0       0       
      +0       0       0
  6470 ;;      Totals:        15       0       0       0       0       0       0       0       0       0       0       0       
      +0       0       0
  6471 ;;Total ram usage:       15 bytes
  6472 ;; Hardware stack levels used:    1
  6473 ;; Hardware stack levels required when called:    5
  6474 ;; This function calls:
  6475 ;;		Nothing
  6476 ;; This function is called by:
  6477 ;;		_ReadInput
  6478 ;;		_ExpectedRippleCountRemainingAngle
  6479 ;;		_ExpectedRippleCountToHome
  6480 ;;		_ExpectedRippleCountToEndPoint
  6481 ;;		_GetAngleTurned
  6482 ;;		_trunc
  6483 ;; This function uses a non-reentrant model
  6484 ;;
  6485                           
  6486                           	psect	text52
  6487  001270                     __ptext52:
  6488                           	opt stack 0
  6489  001270                     ___fttol:
  6490                           	opt stack 21
  6491                           
  6492                           ;incstack = 0
  6493  001270  C01C  F01E         	movff	___fttol@f1+2,??___fttol
  6494  001274  6A1F               	clrf	(??___fttol+1)& (0+255),c
  6495  001276  6A20               	clrf	(??___fttol+2)& (0+255),c
  6496  001278  341B               	rlcf	___fttol@f1+1,w,c
  6497  00127A  361E               	rlcf	??___fttol& (0+255),f,c
  6498  00127C  E301               	bnc	u2661
  6499  00127E  801F               	bsf	(??___fttol+1)& (0+255),0,c
  6500  001280                     u2661:
  6501  001280  501E               	movf	??___fttol,w,c
  6502  001282  6E28               	movwf	___fttol@exp1,c
  6503  001284  5028               	movf	___fttol@exp1,w,c
  6504  001286  E105               	bnz	l3972
  6505  001288                     u2670:
  6506  001288  6A1A               	clrf	?___fttol,c
  6507  00128A  6A1B               	clrf	?___fttol+1,c
  6508  00128C  6A1C               	clrf	?___fttol+2,c
  6509  00128E  6A1D               	clrf	?___fttol+3,c
  6510  001290  0012               	return	
  6511  001292                     l3972:
  6512  001292  0E17               	movlw	23
  6513  001294  6E1E               	movwf	??___fttol& (0+255),c
  6514  001296  C01A  F01F         	movff	___fttol@f1,??___fttol+1
  6515  00129A  C01B  F020         	movff	___fttol@f1+1,??___fttol+2
  6516  00129E  C01C  F021         	movff	___fttol@f1+2,??___fttol+3
  6517  0012A2  281E               	incf	??___fttol,w,c
  6518  0012A4  6E22               	movwf	(??___fttol+4)& (0+255),c
  6519  0012A6  D004               	goto	u2680
  6520  0012A8                     u2685:
  6521  0012A8  90D8               	bcf	status,0,c
  6522  0012AA  3221               	rrcf	??___fttol+3,f,c
  6523  0012AC  3220               	rrcf	??___fttol+2,f,c
  6524  0012AE  321F               	rrcf	??___fttol+1,f,c
  6525  0012B0                     u2680:
  6526  0012B0  2E22               	decfsz	(??___fttol+4)& (0+255),f,c
  6527  0012B2  D7FA               	goto	u2685
  6528  0012B4  501F               	movf	??___fttol+1,w,c
  6529  0012B6  6E23               	movwf	___fttol@sign1,c
  6530  0012B8  8E1B               	bsf	___fttol@f1+1,7,c
  6531  0012BA  6A1C               	clrf	___fttol@f1+2,c
  6532  0012BC  501A               	movf	___fttol@f1,w,c
  6533  0012BE  6E24               	movwf	___fttol@lval,c
  6534  0012C0  501B               	movf	___fttol@f1+1,w,c
  6535  0012C2  6E25               	movwf	___fttol@lval+1,c
  6536  0012C4  501C               	movf	___fttol@f1+2,w,c
  6537  0012C6  6E26               	movwf	___fttol@lval+2,c
  6538  0012C8  6A27               	clrf	___fttol@lval+3,c
  6539  0012CA  0E8E               	movlw	142
  6540  0012CC  5E28               	subwf	___fttol@exp1,f,c
  6541  0012CE  AE28               	btfss	___fttol@exp1,7,c
  6542  0012D0  D00C               	goto	l3992
  6543  0012D2  5028               	movf	___fttol@exp1,w,c
  6544  0012D4  0A80               	xorlw	128
  6545  0012D6  0F8F               	addlw	143
  6546  0012D8  E3D7               	bnc	u2670
  6547  0012DA                     l3988:
  6548  0012DA  90D8               	bcf	status,0,c
  6549  0012DC  3227               	rrcf	___fttol@lval+3,f,c
  6550  0012DE  3226               	rrcf	___fttol@lval+2,f,c
  6551  0012E0  3225               	rrcf	___fttol@lval+1,f,c
  6552  0012E2  3224               	rrcf	___fttol@lval,f,c
  6553  0012E4  3E28               	incfsz	___fttol@exp1,f,c
  6554  0012E6  D7F9               	goto	l3988
  6555  0012E8  D00C               	goto	u2720
  6556  0012EA                     l3992:
  6557  0012EA  0E17               	movlw	23
  6558  0012EC  6428               	cpfsgt	___fttol@exp1,c
  6559  0012EE  D007               	goto	l3998
  6560  0012F0  D7CB               	goto	u2670
  6561  0012F2                     l3996:
  6562  0012F2  90D8               	bcf	status,0,c
  6563  0012F4  3624               	rlcf	___fttol@lval,f,c
  6564  0012F6  3625               	rlcf	___fttol@lval+1,f,c
  6565  0012F8  3626               	rlcf	___fttol@lval+2,f,c
  6566  0012FA  3627               	rlcf	___fttol@lval+3,f,c
  6567  0012FC  0628               	decf	___fttol@exp1,f,c
  6568  0012FE                     l3998:
  6569  0012FE  5028               	movf	___fttol@exp1,w,c
  6570  001300  E1F8               	bnz	l3996
  6571  001302                     u2720:
  6572  001302  5023               	movf	___fttol@sign1,w,c
  6573  001304  E008               	bz	l4004
  6574  001306  1E27               	comf	___fttol@lval+3,f,c
  6575  001308  1E26               	comf	___fttol@lval+2,f,c
  6576  00130A  1E25               	comf	___fttol@lval+1,f,c
  6577  00130C  6C24               	negf	___fttol@lval,c
  6578  00130E  0E00               	movlw	0
  6579  001310  2225               	addwfc	___fttol@lval+1,f,c
  6580  001312  2226               	addwfc	___fttol@lval+2,f,c
  6581  001314  2227               	addwfc	___fttol@lval+3,f,c
  6582  001316                     l4004:
  6583  001316  C024  F01A         	movff	___fttol@lval,?___fttol
  6584  00131A  C025  F01B         	movff	___fttol@lval+1,?___fttol+1
  6585  00131E  C026  F01C         	movff	___fttol@lval+2,?___fttol+2
  6586  001322  C027  F01D         	movff	___fttol@lval+3,?___fttol+3
  6587  001326  0012               	return		;funcret
  6588  001328                     __end_of___fttol:
  6589                           	opt stack 0
  6590                           tosu	equ	0xFFF
  6591                           tosh	equ	0xFFE
  6592                           tosl	equ	0xFFD
  6593                           pclath	equ	0xFFA
  6594                           tblptru	equ	0xFF8
  6595                           tblptrh	equ	0xFF7
  6596                           tblptrl	equ	0xFF6
  6597                           tablat	equ	0xFF5
  6598                           prodl	equ	0xFF3
  6599                           intcon	equ	0xFF2
  6600                           postinc0	equ	0xFEE
  6601                           wreg	equ	0xFE8
  6602                           postinc2	equ	0xFDE
  6603                           postdec2	equ	0xFDD
  6604                           fsr2h	equ	0xFDA
  6605                           fsr2l	equ	0xFD9
  6606                           status	equ	0xFD8
  6607                           
  6608 ;; *************** function ___altoft *****************
  6609 ;; Defined at:
  6610 ;;		line 42 in file "C:\Program Files (x86)\Microchip\xc8\v1.45\sources\common\altoft.c"
  6611 ;; Parameters:    Size  Location     Type
  6612 ;;  c               4   40[COMRAM] long 
  6613 ;; Auto vars:     Size  Location     Type
  6614 ;;  sign            1   49[COMRAM] unsigned char 
  6615 ;;  exp             1   48[COMRAM] unsigned char 
  6616 ;; Return value:  Size  Location     Type
  6617 ;;                  3   40[COMRAM] float 
  6618 ;; Registers used:
  6619 ;;		wreg, status,2, status,0, cstack
  6620 ;; Tracked objects:
  6621 ;;		On entry : 0/0
  6622 ;;		On exit  : 0/0
  6623 ;;		Unchanged: 0/0
  6624 ;; Data sizes:     COMRAM   BANK0   BANK1   BANK2   BANK3   BANK4   BANK5   BANK6   BANK7   BANK8   BANK9  BANK10  BANK1
      +1  BANK12  BANK14
  6625 ;;      Params:         4       0       0       0       0       0       0       0       0       0       0       0       
      +0       0       0
  6626 ;;      Locals:         2       0       0       0       0       0       0       0       0       0       0       0       
      +0       0       0
  6627 ;;      Temps:          4       0       0       0       0       0       0       0       0       0       0       0       
      +0       0       0
  6628 ;;      Totals:        10       0       0       0       0       0       0       0       0       0       0       0       
      +0       0       0
  6629 ;;Total ram usage:       10 bytes
  6630 ;; Hardware stack levels used:    1
  6631 ;; Hardware stack levels required when called:    6
  6632 ;; This function calls:
  6633 ;;		___ftpack
  6634 ;; This function is called by:
  6635 ;;		_trunc
  6636 ;; This function uses a non-reentrant model
  6637 ;;
  6638                           
  6639                           	psect	text53
  6640  001844                     __ptext53:
  6641                           	opt stack 0
  6642  001844                     ___altoft:
  6643                           	opt stack 20
  6644                           
  6645                           ;incstack = 0
  6646  001844  6A32               	clrf	___altoft@sign,c
  6647  001846  0E8E               	movlw	142
  6648  001848  6E31               	movwf	___altoft@exp,c
  6649  00184A  AE2C               	btfss	___altoft@c+3,7,c
  6650  00184C  D011               	goto	l3898
  6651  00184E  1E2C               	comf	___altoft@c+3,f,c
  6652  001850  1E2B               	comf	___altoft@c+2,f,c
  6653  001852  1E2A               	comf	___altoft@c+1,f,c
  6654  001854  6C29               	negf	___altoft@c,c
  6655  001856  0E00               	movlw	0
  6656  001858  222A               	addwfc	___altoft@c+1,f,c
  6657  00185A  222B               	addwfc	___altoft@c+2,f,c
  6658  00185C  222C               	addwfc	___altoft@c+3,f,c
  6659  00185E  0E01               	movlw	1
  6660  001860  6E32               	movwf	___altoft@sign,c
  6661  001862  D006               	goto	l3898
  6662  001864                     l3896:
  6663  001864  90D8               	bcf	status,0,c
  6664  001866  322C               	rrcf	___altoft@c+3,f,c
  6665  001868  322B               	rrcf	___altoft@c+2,f,c
  6666  00186A  322A               	rrcf	___altoft@c+1,f,c
  6667  00186C  3229               	rrcf	___altoft@c,f,c
  6668  00186E  2A31               	incf	___altoft@exp,f,c
  6669  001870                     l3898:
  6670  001870  6A2D               	clrf	??___altoft& (0+255),c
  6671  001872  6A2E               	clrf	(??___altoft+1)& (0+255),c
  6672  001874  6A2F               	clrf	(??___altoft+2)& (0+255),c
  6673  001876  502C               	movf	___altoft@c+3,w,c
  6674  001878  6E30               	movwf	(??___altoft+3)& (0+255),c
  6675  00187A  502D               	movf	??___altoft,w,c
  6676  00187C  102E               	iorwf	??___altoft+1,w,c
  6677  00187E  102F               	iorwf	??___altoft+2,w,c
  6678  001880  1030               	iorwf	??___altoft+3,w,c
  6679  001882  E1F0               	bnz	l3896
  6680  001884  C029  F003         	movff	___altoft@c,___ftpack@arg
  6681  001888  C02A  F004         	movff	___altoft@c+1,___ftpack@arg+1
  6682  00188C  C02B  F005         	movff	___altoft@c+2,___ftpack@arg+2
  6683  001890  C031  F006         	movff	___altoft@exp,___ftpack@exp
  6684  001894  C032  F007         	movff	___altoft@sign,___ftpack@sign
  6685  001898  EC44  F00A         	call	___ftpack	;wreg free
  6686  00189C  C003  F029         	movff	?___ftpack,?___altoft
  6687  0018A0  C004  F02A         	movff	?___ftpack+1,?___altoft+1
  6688  0018A4  C005  F02B         	movff	?___ftpack+2,?___altoft+2
  6689  0018A8  0012               	return		;funcret
  6690  0018AA                     __end_of___altoft:
  6691                           	opt stack 0
  6692                           tosu	equ	0xFFF
  6693                           tosh	equ	0xFFE
  6694                           tosl	equ	0xFFD
  6695                           pclath	equ	0xFFA
  6696                           tblptru	equ	0xFF8
  6697                           tblptrh	equ	0xFF7
  6698                           tblptrl	equ	0xFF6
  6699                           tablat	equ	0xFF5
  6700                           prodl	equ	0xFF3
  6701                           intcon	equ	0xFF2
  6702                           postinc0	equ	0xFEE
  6703                           wreg	equ	0xFE8
  6704                           postinc2	equ	0xFDE
  6705                           postdec2	equ	0xFDD
  6706                           fsr2h	equ	0xFDA
  6707                           fsr2l	equ	0xFD9
  6708                           status	equ	0xFD8
  6709                           
  6710 ;; *************** function ___ftsub *****************
  6711 ;; Defined at:
  6712 ;;		line 20 in file "C:\Program Files (x86)\Microchip\xc8\v1.45\sources\common\ftsub.c"
  6713 ;; Parameters:    Size  Location     Type
  6714 ;;  f1              3   58[COMRAM] float 
  6715 ;;  f2              3   61[COMRAM] float 
  6716 ;; Auto vars:     Size  Location     Type
  6717 ;;		None
  6718 ;; Return value:  Size  Location     Type
  6719 ;;                  3   58[COMRAM] float 
  6720 ;; Registers used:
  6721 ;;		wreg, status,2, status,0, cstack
  6722 ;; Tracked objects:
  6723 ;;		On entry : 0/0
  6724 ;;		On exit  : 0/0
  6725 ;;		Unchanged: 0/0
  6726 ;; Data sizes:     COMRAM   BANK0   BANK1   BANK2   BANK3   BANK4   BANK5   BANK6   BANK7   BANK8   BANK9  BANK10  BANK1
      +1  BANK12  BANK14
  6727 ;;      Params:         6       0       0       0       0       0       0       0       0       0       0       0       
      +0       0       0
  6728 ;;      Locals:         0       0       0       0       0       0       0       0       0       0       0       0       
      +0       0       0
  6729 ;;      Temps:          0       0       0       0       0       0       0       0       0       0       0       0       
      +0       0       0
  6730 ;;      Totals:         6       0       0       0       0       0       0       0       0       0       0       0       
      +0       0       0
  6731 ;;Total ram usage:        6 bytes
  6732 ;; Hardware stack levels used:    1
  6733 ;; Hardware stack levels required when called:    7
  6734 ;; This function calls:
  6735 ;;		___ftadd
  6736 ;; This function is called by:
  6737 ;;		_round
  6738 ;; This function uses a non-reentrant model
  6739 ;;
  6740                           
  6741                           	psect	text54
  6742  001BC6                     __ptext54:
  6743                           	opt stack 0
  6744  001BC6                     ___ftsub:
  6745                           	opt stack 20
  6746                           
  6747                           ;incstack = 0
  6748  001BC6  503E               	movf	___ftsub@f2,w,c
  6749  001BC8  103F               	iorwf	___ftsub@f2+1,w,c
  6750  001BCA  1040               	iorwf	___ftsub@f2+2,w,c
  6751  001BCC  E002               	bz	l4028
  6752  001BCE  0E80               	movlw	128
  6753  001BD0  1A40               	xorwf	___ftsub@f2+2,f,c
  6754  001BD2                     l4028:
  6755  001BD2  C03B  F00E         	movff	___ftsub@f1,___ftadd@f1
  6756  001BD6  C03C  F00F         	movff	___ftsub@f1+1,___ftadd@f1+1
  6757  001BDA  C03D  F010         	movff	___ftsub@f1+2,___ftadd@f1+2
  6758  001BDE  C03E  F011         	movff	___ftsub@f2,___ftadd@f2
  6759  001BE2  C03F  F012         	movff	___ftsub@f2+1,___ftadd@f2+1
  6760  001BE6  C040  F013         	movff	___ftsub@f2+2,___ftadd@f2+2
  6761  001BEA  ECB5  F007         	call	___ftadd	;wreg free
  6762  001BEE  C00E  F03B         	movff	?___ftadd,?___ftsub
  6763  001BF2  C00F  F03C         	movff	?___ftadd+1,?___ftsub+1
  6764  001BF6  C010  F03D         	movff	?___ftadd+2,?___ftsub+2
  6765  001BFA  0012               	return		;funcret
  6766  001BFC                     __end_of___ftsub:
  6767                           	opt stack 0
  6768                           tosu	equ	0xFFF
  6769                           tosh	equ	0xFFE
  6770                           tosl	equ	0xFFD
  6771                           pclath	equ	0xFFA
  6772                           tblptru	equ	0xFF8
  6773                           tblptrh	equ	0xFF7
  6774                           tblptrl	equ	0xFF6
  6775                           tablat	equ	0xFF5
  6776                           prodl	equ	0xFF3
  6777                           intcon	equ	0xFF2
  6778                           postinc0	equ	0xFEE
  6779                           wreg	equ	0xFE8
  6780                           postinc2	equ	0xFDE
  6781                           postdec2	equ	0xFDD
  6782                           fsr2h	equ	0xFDA
  6783                           fsr2l	equ	0xFD9
  6784                           status	equ	0xFD8
  6785                           
  6786 ;; *************** function ___ftadd *****************
  6787 ;; Defined at:
  6788 ;;		line 86 in file "C:\Program Files (x86)\Microchip\xc8\v1.45\sources\common\ftadd.c"
  6789 ;; Parameters:    Size  Location     Type
  6790 ;;  f1              3   13[COMRAM] float 
  6791 ;;  f2              3   16[COMRAM] float 
  6792 ;; Auto vars:     Size  Location     Type
  6793 ;;  exp1            1   24[COMRAM] unsigned char 
  6794 ;;  exp2            1   23[COMRAM] unsigned char 
  6795 ;;  sign            1   22[COMRAM] unsigned char 
  6796 ;; Return value:  Size  Location     Type
  6797 ;;                  3   13[COMRAM] float 
  6798 ;; Registers used:
  6799 ;;		wreg, status,2, status,0, cstack
  6800 ;; Tracked objects:
  6801 ;;		On entry : 0/0
  6802 ;;		On exit  : 0/0
  6803 ;;		Unchanged: 0/0
  6804 ;; Data sizes:     COMRAM   BANK0   BANK1   BANK2   BANK3   BANK4   BANK5   BANK6   BANK7   BANK8   BANK9  BANK10  BANK1
      +1  BANK12  BANK14
  6805 ;;      Params:         6       0       0       0       0       0       0       0       0       0       0       0       
      +0       0       0
  6806 ;;      Locals:         3       0       0       0       0       0       0       0       0       0       0       0       
      +0       0       0
  6807 ;;      Temps:          3       0       0       0       0       0       0       0       0       0       0       0       
      +0       0       0
  6808 ;;      Totals:        12       0       0       0       0       0       0       0       0       0       0       0       
      +0       0       0
  6809 ;;Total ram usage:       12 bytes
  6810 ;; Hardware stack levels used:    1
  6811 ;; Hardware stack levels required when called:    6
  6812 ;; This function calls:
  6813 ;;		___ftpack
  6814 ;; This function is called by:
  6815 ;;		_ExpectedRippleCountToHome
  6816 ;;		_ExpectedRippleCountToEndPoint
  6817 ;;		___ftsub
  6818 ;;		_round
  6819 ;; This function uses a non-reentrant model
  6820 ;;
  6821                           
  6822                           	psect	text55
  6823  000F6A                     __ptext55:
  6824                           	opt stack 0
  6825  000F6A                     ___ftadd:
  6826                           	opt stack 20
  6827                           
  6828                           ;incstack = 0
  6829  000F6A  C010  F014         	movff	___ftadd@f1+2,??___ftadd
  6830  000F6E  6A15               	clrf	(??___ftadd+1)& (0+255),c
  6831  000F70  6A16               	clrf	(??___ftadd+2)& (0+255),c
  6832  000F72  340F               	rlcf	___ftadd@f1+1,w,c
  6833  000F74  3614               	rlcf	??___ftadd& (0+255),f,c
  6834  000F76  E301               	bnc	u2451
  6835  000F78  8015               	bsf	(??___ftadd+1)& (0+255),0,c
  6836  000F7A                     u2451:
  6837  000F7A  5014               	movf	??___ftadd,w,c
  6838  000F7C  6E19               	movwf	___ftadd@exp1,c
  6839  000F7E  C013  F014         	movff	___ftadd@f2+2,??___ftadd
  6840  000F82  6A15               	clrf	(??___ftadd+1)& (0+255),c
  6841  000F84  6A16               	clrf	(??___ftadd+2)& (0+255),c
  6842  000F86  3412               	rlcf	___ftadd@f2+1,w,c
  6843  000F88  3614               	rlcf	??___ftadd& (0+255),f,c
  6844  000F8A  E301               	bnc	u2461
  6845  000F8C  8015               	bsf	(??___ftadd+1)& (0+255),0,c
  6846  000F8E                     u2461:
  6847  000F8E  5014               	movf	??___ftadd,w,c
  6848  000F90  6E18               	movwf	___ftadd@exp2,c
  6849  000F92  5019               	movf	___ftadd@exp1,w,c
  6850  000F94  E009               	bz	u2490
  6851  000F96  5018               	movf	___ftadd@exp2,w,c
  6852  000F98  5C19               	subwf	___ftadd@exp1,w,c
  6853  000F9A  E20D               	bc	l3912
  6854  000F9C  5019               	movf	___ftadd@exp1,w,c
  6855  000F9E  5C18               	subwf	___ftadd@exp2,w,c
  6856  000FA0  6E14               	movwf	??___ftadd& (0+255),c
  6857  000FA2  0E18               	movlw	24
  6858  000FA4  6414               	cpfsgt	??___ftadd,c
  6859  000FA6  D007               	goto	l3912
  6860  000FA8                     u2490:
  6861  000FA8  C011  F00E         	movff	___ftadd@f2,?___ftadd
  6862  000FAC  C012  F00F         	movff	___ftadd@f2+1,?___ftadd+1
  6863  000FB0  C013  F010         	movff	___ftadd@f2+2,?___ftadd+2
  6864  000FB4  0012               	return	
  6865  000FB6                     l3912:
  6866  000FB6  5018               	movf	___ftadd@exp2,w,c
  6867  000FB8  E009               	bz	u2520
  6868  000FBA  5019               	movf	___ftadd@exp1,w,c
  6869  000FBC  5C18               	subwf	___ftadd@exp2,w,c
  6870  000FBE  E20D               	bc	l3918
  6871  000FC0  5018               	movf	___ftadd@exp2,w,c
  6872  000FC2  5C19               	subwf	___ftadd@exp1,w,c
  6873  000FC4  6E14               	movwf	??___ftadd& (0+255),c
  6874  000FC6  0E18               	movlw	24
  6875  000FC8  6414               	cpfsgt	??___ftadd,c
  6876  000FCA  D007               	goto	l3918
  6877  000FCC                     u2520:
  6878  000FCC  C00E  F00E         	movff	___ftadd@f1,?___ftadd
  6879  000FD0  C00F  F00F         	movff	___ftadd@f1+1,?___ftadd+1
  6880  000FD4  C010  F010         	movff	___ftadd@f1+2,?___ftadd+2
  6881  000FD8  0012               	return	
  6882  000FDA                     l3918:
  6883  000FDA  0E06               	movlw	6
  6884  000FDC  6E17               	movwf	___ftadd@sign,c
  6885  000FDE  BE10               	btfsc	___ftadd@f1+2,7,c
  6886  000FE0  8E17               	bsf	___ftadd@sign,7,c
  6887  000FE2  BE13               	btfsc	___ftadd@f2+2,7,c
  6888  000FE4  8C17               	bsf	___ftadd@sign,6,c
  6889  000FE6  8E0F               	bsf	___ftadd@f1+1,7,c
  6890  000FE8  6A10               	clrf	___ftadd@f1+2,c
  6891  000FEA  8E12               	bsf	___ftadd@f2+1,7,c
  6892  000FEC  6A13               	clrf	___ftadd@f2+2,c
  6893  000FEE  5018               	movf	___ftadd@exp2,w,c
  6894  000FF0  5C19               	subwf	___ftadd@exp1,w,c
  6895  000FF2  E214               	bc	l3944
  6896  000FF4                     u2550:
  6897  000FF4  90D8               	bcf	status,0,c
  6898  000FF6  3611               	rlcf	___ftadd@f2,f,c
  6899  000FF8  3612               	rlcf	___ftadd@f2+1,f,c
  6900  000FFA  3613               	rlcf	___ftadd@f2+2,f,c
  6901  000FFC  0618               	decf	___ftadd@exp2,f,c
  6902  000FFE  5019               	movf	___ftadd@exp1,w,c
  6903  001000  1818               	xorwf	___ftadd@exp2,w,c
  6904  001002  E008               	bz	l3942
  6905  001004  D853               	call	PL24	;call to abstracted procedure
  6906  001006  E006               	bz	l3942
  6907  001008  D7F5               	goto	u2550
  6908  00100A                     l3940:
  6909  00100A  90D8               	bcf	status,0,c
  6910  00100C  3210               	rrcf	___ftadd@f1+2,f,c
  6911  00100E  320F               	rrcf	___ftadd@f1+1,f,c
  6912  001010  320E               	rrcf	___ftadd@f1,f,c
  6913  001012  2A19               	incf	___ftadd@exp1,f,c
  6914  001014                     l3942:
  6915  001014  5018               	movf	___ftadd@exp2,w,c
  6916  001016  1819               	xorwf	___ftadd@exp1,w,c
  6917  001018  E017               	bz	u2620
  6918  00101A  D7F7               	goto	l3940
  6919  00101C                     l3944:
  6920  00101C  5019               	movf	___ftadd@exp1,w,c
  6921  00101E  5C18               	subwf	___ftadd@exp2,w,c
  6922  001020  E213               	bc	u2620
  6923  001022                     u2590:
  6924  001022  90D8               	bcf	status,0,c
  6925  001024  360E               	rlcf	___ftadd@f1,f,c
  6926  001026  360F               	rlcf	___ftadd@f1+1,f,c
  6927  001028  3610               	rlcf	___ftadd@f1+2,f,c
  6928  00102A  0619               	decf	___ftadd@exp1,f,c
  6929  00102C  5019               	movf	___ftadd@exp1,w,c
  6930  00102E  1818               	xorwf	___ftadd@exp2,w,c
  6931  001030  E008               	bz	l3954
  6932  001032  D83C               	call	PL24	;call to abstracted procedure
  6933  001034  E006               	bz	l3954
  6934  001036  D7F5               	goto	u2590
  6935  001038                     l3952:
  6936  001038  90D8               	bcf	status,0,c
  6937  00103A  3213               	rrcf	___ftadd@f2+2,f,c
  6938  00103C  3212               	rrcf	___ftadd@f2+1,f,c
  6939  00103E  3211               	rrcf	___ftadd@f2,f,c
  6940  001040  2A18               	incf	___ftadd@exp2,f,c
  6941  001042                     l3954:
  6942  001042  5018               	movf	___ftadd@exp2,w,c
  6943  001044  1819               	xorwf	___ftadd@exp1,w,c
  6944  001046  E1F8               	bnz	l3952
  6945  001048                     u2620:
  6946  001048  AE17               	btfss	___ftadd@sign,7,c
  6947  00104A  D007               	goto	l1644
  6948  00104C  1E0E               	comf	___ftadd@f1,f,c
  6949  00104E  1E0F               	comf	___ftadd@f1+1,f,c
  6950  001050  1E10               	comf	___ftadd@f1+2,f,c
  6951  001052  2A0E               	incf	___ftadd@f1,f,c
  6952  001054  0E00               	movlw	0
  6953  001056  220F               	addwfc	___ftadd@f1+1,f,c
  6954  001058  2210               	addwfc	___ftadd@f1+2,f,c
  6955  00105A                     l1644:
  6956  00105A  BC17               	btfsc	___ftadd@sign,6,c
  6957  00105C  D81F               	call	PL12	;call to abstracted procedure
  6958  00105E                     l1645:
  6959  00105E  6A17               	clrf	___ftadd@sign,c
  6960  001060  500E               	movf	___ftadd@f1,w,c
  6961  001062  2611               	addwf	___ftadd@f2,f,c
  6962  001064  500F               	movf	___ftadd@f1+1,w,c
  6963  001066  2212               	addwfc	___ftadd@f2+1,f,c
  6964  001068  5010               	movf	___ftadd@f1+2,w,c
  6965  00106A  2213               	addwfc	___ftadd@f2+2,f,c
  6966  00106C  AE13               	btfss	___ftadd@f2+2,7,c
  6967  00106E  D003               	goto	l3964
  6968  001070  D815               	call	PL12	;call to abstracted procedure
  6969  001072  0E01               	movlw	1
  6970  001074  6E17               	movwf	___ftadd@sign,c
  6971  001076                     l3964:
  6972  001076  C011  F003         	movff	___ftadd@f2,___ftpack@arg
  6973  00107A  C012  F004         	movff	___ftadd@f2+1,___ftpack@arg+1
  6974  00107E  C013  F005         	movff	___ftadd@f2+2,___ftpack@arg+2
  6975  001082  C019  F006         	movff	___ftadd@exp1,___ftpack@exp
  6976  001086  C017  F007         	movff	___ftadd@sign,___ftpack@sign
  6977  00108A  EC44  F00A         	call	___ftpack	;wreg free
  6978  00108E  C003  F00E         	movff	?___ftpack,?___ftadd
  6979  001092  C004  F00F         	movff	?___ftpack+1,?___ftadd+1
  6980  001096  C005  F010         	movff	?___ftpack+2,?___ftadd+2
  6981  00109A  0012               	return		;funcret
  6982  00109C                     __end_of___ftadd:
  6983                           	opt stack 0
  6984  00109C                     PL12:
  6985                           	opt stack 20
  6986  00109C  1E11               	comf	___ftadd@f2,f,c
  6987  00109E  1E12               	comf	___ftadd@f2+1,f,c
  6988  0010A0  1E13               	comf	___ftadd@f2+2,f,c
  6989  0010A2  2A11               	incf	___ftadd@f2,f,c
  6990  0010A4  0E00               	movlw	0
  6991  0010A6  2212               	addwfc	___ftadd@f2+1,f,c
  6992  0010A8  2213               	addwfc	___ftadd@f2+2,f,c
  6993  0010AA  0C00               	retlw	0
  6994  0010AC                     __end_ofPL12:
  6995                           	opt stack 0
  6996  0010AC                     PL24:
  6997                           	opt stack 20
  6998  0010AC  0617               	decf	___ftadd@sign,f,c
  6999  0010AE  C017  F014         	movff	___ftadd@sign,??___ftadd
  7000  0010B2  0E07               	movlw	7
  7001  0010B4  1614               	andwf	??___ftadd,f,c
  7002  0010B6  0C07               	retlw	7
  7003  0010B8                     __end_ofPL24:
  7004                           	opt stack 0
  7005                           tosu	equ	0xFFF
  7006                           tosh	equ	0xFFE
  7007                           tosl	equ	0xFFD
  7008                           pclath	equ	0xFFA
  7009                           tblptru	equ	0xFF8
  7010                           tblptrh	equ	0xFF7
  7011                           tblptrl	equ	0xFF6
  7012                           tablat	equ	0xFF5
  7013                           prodl	equ	0xFF3
  7014                           intcon	equ	0xFF2
  7015                           postinc0	equ	0xFEE
  7016                           wreg	equ	0xFE8
  7017                           postinc2	equ	0xFDE
  7018                           postdec2	equ	0xFDD
  7019                           fsr2h	equ	0xFDA
  7020                           fsr2l	equ	0xFD9
  7021                           status	equ	0xFD8
  7022                           
  7023 ;; *************** function ___lwtoft *****************
  7024 ;; Defined at:
  7025 ;;		line 28 in file "C:\Program Files (x86)\Microchip\xc8\v1.45\sources\common\lwtoft.c"
  7026 ;; Parameters:    Size  Location     Type
  7027 ;;  c               2   10[COMRAM] unsigned int 
  7028 ;; Auto vars:     Size  Location     Type
  7029 ;;		None
  7030 ;; Return value:  Size  Location     Type
  7031 ;;                  3   10[COMRAM] float 
  7032 ;; Registers used:
  7033 ;;		wreg, status,2, status,0, cstack
  7034 ;; Tracked objects:
  7035 ;;		On entry : 0/0
  7036 ;;		On exit  : 0/0
  7037 ;;		Unchanged: 0/0
  7038 ;; Data sizes:     COMRAM   BANK0   BANK1   BANK2   BANK3   BANK4   BANK5   BANK6   BANK7   BANK8   BANK9  BANK10  BANK1
      +1  BANK12  BANK14
  7039 ;;      Params:         3       0       0       0       0       0       0       0       0       0       0       0       
      +0       0       0
  7040 ;;      Locals:         0       0       0       0       0       0       0       0       0       0       0       0       
      +0       0       0
  7041 ;;      Temps:          0       0       0       0       0       0       0       0       0       0       0       0       
      +0       0       0
  7042 ;;      Totals:         3       0       0       0       0       0       0       0       0       0       0       0       
      +0       0       0
  7043 ;;Total ram usage:        3 bytes
  7044 ;; Hardware stack levels used:    1
  7045 ;; Hardware stack levels required when called:    6
  7046 ;; This function calls:
  7047 ;;		___ftpack
  7048 ;; This function is called by:
  7049 ;;		_ReadInput
  7050 ;;		_ExpectedRippleCountRemainingAngle
  7051 ;;		_ExpectedRippleCountToHome
  7052 ;;		_ExpectedRippleCountToEndPoint
  7053 ;;		_GetAngleTurned
  7054 ;; This function uses a non-reentrant model
  7055 ;;
  7056                           
  7057                           	psect	text56
  7058  001D98                     __ptext56:
  7059                           	opt stack 0
  7060  001D98                     ___lwtoft:
  7061                           	opt stack 22
  7062                           
  7063                           ;incstack = 0
  7064  001D98  C00B  F003         	movff	___lwtoft@c,___ftpack@arg
  7065  001D9C  C00C  F004         	movff	___lwtoft@c+1,___ftpack@arg+1
  7066  001DA0  6A05               	clrf	___ftpack@arg+2,c
  7067  001DA2  0E8E               	movlw	142
  7068  001DA4  6E06               	movwf	___ftpack@exp,c
  7069  001DA6  0E00               	movlw	0
  7070  001DA8  6E07               	movwf	___ftpack@sign,c
  7071  001DAA  EC44  F00A         	call	___ftpack	;wreg free
  7072  001DAE  C003  F00B         	movff	?___ftpack,?___lwtoft
  7073  001DB2  C004  F00C         	movff	?___ftpack+1,?___lwtoft+1
  7074  001DB6  C005  F00D         	movff	?___ftpack+2,?___lwtoft+2
  7075  001DBA  0012               	return		;funcret
  7076  001DBC                     __end_of___lwtoft:
  7077                           	opt stack 0
  7078                           tosu	equ	0xFFF
  7079                           tosh	equ	0xFFE
  7080                           tosl	equ	0xFFD
  7081                           pclath	equ	0xFFA
  7082                           tblptru	equ	0xFF8
  7083                           tblptrh	equ	0xFF7
  7084                           tblptrl	equ	0xFF6
  7085                           tablat	equ	0xFF5
  7086                           prodl	equ	0xFF3
  7087                           intcon	equ	0xFF2
  7088                           postinc0	equ	0xFEE
  7089                           wreg	equ	0xFE8
  7090                           postinc2	equ	0xFDE
  7091                           postdec2	equ	0xFDD
  7092                           fsr2h	equ	0xFDA
  7093                           fsr2l	equ	0xFD9
  7094                           status	equ	0xFD8
  7095                           
  7096 ;; *************** function ___ftmul *****************
  7097 ;; Defined at:
  7098 ;;		line 62 in file "C:\Program Files (x86)\Microchip\xc8\v1.45\sources\common\ftmul.c"
  7099 ;; Parameters:    Size  Location     Type
  7100 ;;  f1              3   70[COMRAM] float 
  7101 ;;  f2              3   73[COMRAM] float 
  7102 ;; Auto vars:     Size  Location     Type
  7103 ;;  f3_as_produc    3   80[COMRAM] unsigned um
  7104 ;;  sign            1   84[COMRAM] unsigned char 
  7105 ;;  cntr            1   83[COMRAM] unsigned char 
  7106 ;;  exp             1   79[COMRAM] unsigned char 
  7107 ;; Return value:  Size  Location     Type
  7108 ;;                  3   70[COMRAM] float 
  7109 ;; Registers used:
  7110 ;;		wreg, status,2, status,0, cstack
  7111 ;; Tracked objects:
  7112 ;;		On entry : 0/0
  7113 ;;		On exit  : 0/0
  7114 ;;		Unchanged: 0/0
  7115 ;; Data sizes:     COMRAM   BANK0   BANK1   BANK2   BANK3   BANK4   BANK5   BANK6   BANK7   BANK8   BANK9  BANK10  BANK1
      +1  BANK12  BANK14
  7116 ;;      Params:         6       0       0       0       0       0       0       0       0       0       0       0       
      +0       0       0
  7117 ;;      Locals:         6       0       0       0       0       0       0       0       0       0       0       0       
      +0       0       0
  7118 ;;      Temps:          3       0       0       0       0       0       0       0       0       0       0       0       
      +0       0       0
  7119 ;;      Totals:        15       0       0       0       0       0       0       0       0       0       0       0       
      +0       0       0
  7120 ;;Total ram usage:       15 bytes
  7121 ;; Hardware stack levels used:    1
  7122 ;; Hardware stack levels required when called:    6
  7123 ;; This function calls:
  7124 ;;		___ftpack
  7125 ;; This function is called by:
  7126 ;;		_ReadInput
  7127 ;;		_ExpectedRippleCountRemainingAngle
  7128 ;;		_ExpectedRippleCountToHome
  7129 ;;		_ExpectedRippleCountToEndPoint
  7130 ;; This function uses a non-reentrant model
  7131 ;;
  7132                           
  7133                           	psect	text57
  7134  0011A8                     __ptext57:
  7135                           	opt stack 0
  7136  0011A8                     ___ftmul:
  7137                           	opt stack 22
  7138                           
  7139                           ;incstack = 0
  7140  0011A8  C049  F04D         	movff	___ftmul@f1+2,??___ftmul
  7141  0011AC  6A4E               	clrf	(??___ftmul+1)& (0+255),c
  7142  0011AE  6A4F               	clrf	(??___ftmul+2)& (0+255),c
  7143  0011B0  3448               	rlcf	___ftmul@f1+1,w,c
  7144  0011B2  364D               	rlcf	??___ftmul& (0+255),f,c
  7145  0011B4  E301               	bnc	u2791
  7146  0011B6  804E               	bsf	(??___ftmul+1)& (0+255),0,c
  7147  0011B8                     u2791:
  7148  0011B8  504D               	movf	??___ftmul,w,c
  7149  0011BA  6E50               	movwf	___ftmul@exp,c
  7150  0011BC  5050               	movf	___ftmul@exp,w,c
  7151  0011BE  E101               	bnz	l4060
  7152  0011C0  D053               	goto	PL36	;call to abstracted procedure
  7153  0011C2                     l4060:
  7154  0011C2  C04C  F04D         	movff	___ftmul@f2+2,??___ftmul
  7155  0011C6  6A4E               	clrf	(??___ftmul+1)& (0+255),c
  7156  0011C8  6A4F               	clrf	(??___ftmul+2)& (0+255),c
  7157  0011CA  344B               	rlcf	___ftmul@f2+1,w,c
  7158  0011CC  364D               	rlcf	??___ftmul& (0+255),f,c
  7159  0011CE  E301               	bnc	u2811
  7160  0011D0  804E               	bsf	(??___ftmul+1)& (0+255),0,c
  7161  0011D2                     u2811:
  7162  0011D2  504D               	movf	??___ftmul,w,c
  7163  0011D4  6E55               	movwf	___ftmul@sign,c
  7164  0011D6  5055               	movf	___ftmul@sign,w,c
  7165  0011D8  E101               	bnz	l4064
  7166  0011DA  D046               	goto	PL36	;call to abstracted procedure
  7167  0011DC                     l4064:
  7168  0011DC  5055               	movf	___ftmul@sign,w,c
  7169  0011DE  0F7B               	addlw	123
  7170  0011E0  2650               	addwf	___ftmul@exp,f,c
  7171  0011E2  C049  F055         	movff	___ftmul@f1+2,___ftmul@sign
  7172  0011E6  504C               	movf	___ftmul@f2+2,w,c
  7173  0011E8  1A55               	xorwf	___ftmul@sign,f,c
  7174  0011EA  0E80               	movlw	128
  7175  0011EC  1655               	andwf	___ftmul@sign,f,c
  7176  0011EE  8E48               	bsf	___ftmul@f1+1,7,c
  7177  0011F0  8E4B               	bsf	___ftmul@f2+1,7,c
  7178  0011F2  0E00               	movlw	0
  7179  0011F4  164C               	andwf	___ftmul@f2+2,f,c
  7180  0011F6  6A51               	clrf	___ftmul@f3_as_product,c
  7181  0011F8  6A52               	clrf	___ftmul@f3_as_product+1,c
  7182  0011FA  6A53               	clrf	___ftmul@f3_as_product+2,c
  7183  0011FC  0E07               	movlw	7
  7184  0011FE  6E54               	movwf	___ftmul@cntr,c
  7185  001200                     l4078:
  7186  001200  B047               	btfsc	___ftmul@f1,0,c
  7187  001202  D82B               	call	PL16	;call to abstracted procedure
  7188  001204                     l4082:
  7189  001204  90D8               	bcf	status,0,c
  7190  001206  3249               	rrcf	___ftmul@f1+2,f,c
  7191  001208  3248               	rrcf	___ftmul@f1+1,f,c
  7192  00120A  3247               	rrcf	___ftmul@f1,f,c
  7193  00120C  90D8               	bcf	status,0,c
  7194  00120E  364A               	rlcf	___ftmul@f2,f,c
  7195  001210  364B               	rlcf	___ftmul@f2+1,f,c
  7196  001212  364C               	rlcf	___ftmul@f2+2,f,c
  7197  001214  2E54               	decfsz	___ftmul@cntr,f,c
  7198  001216  D7F4               	goto	l4078
  7199  001218  0E09               	movlw	9
  7200  00121A  6E54               	movwf	___ftmul@cntr,c
  7201  00121C                     l4088:
  7202  00121C  B047               	btfsc	___ftmul@f1,0,c
  7203  00121E  D81D               	call	PL16	;call to abstracted procedure
  7204  001220                     l4092:
  7205  001220  90D8               	bcf	status,0,c
  7206  001222  3249               	rrcf	___ftmul@f1+2,f,c
  7207  001224  3248               	rrcf	___ftmul@f1+1,f,c
  7208  001226  3247               	rrcf	___ftmul@f1,f,c
  7209  001228  90D8               	bcf	status,0,c
  7210  00122A  3253               	rrcf	___ftmul@f3_as_product+2,f,c
  7211  00122C  3252               	rrcf	___ftmul@f3_as_product+1,f,c
  7212  00122E  3251               	rrcf	___ftmul@f3_as_product,f,c
  7213  001230  2E54               	decfsz	___ftmul@cntr,f,c
  7214  001232  D7F4               	goto	l4088
  7215  001234  C051  F003         	movff	___ftmul@f3_as_product,___ftpack@arg
  7216  001238  C052  F004         	movff	___ftmul@f3_as_product+1,___ftpack@arg+1
  7217  00123C  C053  F005         	movff	___ftmul@f3_as_product+2,___ftpack@arg+2
  7218  001240  C050  F006         	movff	___ftmul@exp,___ftpack@exp
  7219  001244  C055  F007         	movff	___ftmul@sign,___ftpack@sign
  7220  001248  EC44  F00A         	call	___ftpack	;wreg free
  7221  00124C  C003  F047         	movff	?___ftpack,?___ftmul
  7222  001250  C004  F048         	movff	?___ftpack+1,?___ftmul+1
  7223  001254  C005  F049         	movff	?___ftpack+2,?___ftmul+2
  7224  001258  0012               	return		;funcret
  7225  00125A                     __end_of___ftmul:
  7226                           	opt stack 0
  7227  00125A                     PL16:
  7228                           	opt stack 22
  7229  00125A  504A               	movf	___ftmul@f2,w,c
  7230  00125C  2651               	addwf	___ftmul@f3_as_product,f,c
  7231  00125E  504B               	movf	___ftmul@f2+1,w,c
  7232  001260  2252               	addwfc	___ftmul@f3_as_product+1,f,c
  7233  001262  504C               	movf	___ftmul@f2+2,w,c
  7234  001264  2253               	addwfc	___ftmul@f3_as_product+2,f,c
  7235  001266  0012               	return	
  7236  001268                     __end_ofPL16:
  7237                           	opt stack 0
  7238  001268                     PL36:
  7239                           	opt stack 22
  7240  001268  6A47               	clrf	?___ftmul,c
  7241  00126A  6A48               	clrf	?___ftmul+1,c
  7242  00126C  6A49               	clrf	?___ftmul+2,c
  7243  00126E  0012               	return	
  7244  001270                     __end_ofPL36:
  7245                           	opt stack 0
  7246                           tosu	equ	0xFFF
  7247                           tosh	equ	0xFFE
  7248                           tosl	equ	0xFFD
  7249                           pclath	equ	0xFFA
  7250                           tblptru	equ	0xFF8
  7251                           tblptrh	equ	0xFF7
  7252                           tblptrl	equ	0xFF6
  7253                           tablat	equ	0xFF5
  7254                           prodl	equ	0xFF3
  7255                           intcon	equ	0xFF2
  7256                           postinc0	equ	0xFEE
  7257                           wreg	equ	0xFE8
  7258                           postinc2	equ	0xFDE
  7259                           postdec2	equ	0xFDD
  7260                           fsr2h	equ	0xFDA
  7261                           fsr2l	equ	0xFD9
  7262                           status	equ	0xFD8
  7263                           
  7264 ;; *************** function ___ftpack *****************
  7265 ;; Defined at:
  7266 ;;		line 62 in file "C:\Program Files (x86)\Microchip\xc8\v1.45\sources\common\float.c"
  7267 ;; Parameters:    Size  Location     Type
  7268 ;;  arg             3    2[COMRAM] unsigned um
  7269 ;;  exp             1    5[COMRAM] unsigned char 
  7270 ;;  sign            1    6[COMRAM] unsigned char 
  7271 ;; Auto vars:     Size  Location     Type
  7272 ;;		None
  7273 ;; Return value:  Size  Location     Type
  7274 ;;                  3    2[COMRAM] float 
  7275 ;; Registers used:
  7276 ;;		wreg, status,2, status,0
  7277 ;; Tracked objects:
  7278 ;;		On entry : 0/0
  7279 ;;		On exit  : 0/0
  7280 ;;		Unchanged: 0/0
  7281 ;; Data sizes:     COMRAM   BANK0   BANK1   BANK2   BANK3   BANK4   BANK5   BANK6   BANK7   BANK8   BANK9  BANK10  BANK1
      +1  BANK12  BANK14
  7282 ;;      Params:         5       0       0       0       0       0       0       0       0       0       0       0       
      +0       0       0
  7283 ;;      Locals:         0       0       0       0       0       0       0       0       0       0       0       0       
      +0       0       0
  7284 ;;      Temps:          3       0       0       0       0       0       0       0       0       0       0       0       
      +0       0       0
  7285 ;;      Totals:         8       0       0       0       0       0       0       0       0       0       0       0       
      +0       0       0
  7286 ;;Total ram usage:        8 bytes
  7287 ;; Hardware stack levels used:    1
  7288 ;; Hardware stack levels required when called:    5
  7289 ;; This function calls:
  7290 ;;		Nothing
  7291 ;; This function is called by:
  7292 ;;		___altoft
  7293 ;;		___ftadd
  7294 ;;		___ftdiv
  7295 ;;		___ftmul
  7296 ;;		___lwtoft
  7297 ;; This function uses a non-reentrant model
  7298 ;;
  7299                           
  7300                           	psect	text58
  7301  001488                     __ptext58:
  7302                           	opt stack 0
  7303  001488                     ___ftpack:
  7304                           	opt stack 20
  7305                           
  7306                           ;incstack = 0
  7307  001488  5006               	movf	___ftpack@exp,w,c
  7308  00148A  E004               	bz	u2360
  7309  00148C  5003               	movf	___ftpack@arg,w,c
  7310  00148E  1004               	iorwf	___ftpack@arg+1,w,c
  7311  001490  1005               	iorwf	___ftpack@arg+2,w,c
  7312  001492  E106               	bnz	l3858
  7313  001494                     u2360:
  7314  001494  6A03               	clrf	?___ftpack,c
  7315  001496  6A04               	clrf	?___ftpack+1,c
  7316  001498  6A05               	clrf	?___ftpack+2,c
  7317  00149A  0012               	return	
  7318  00149C                     l3856:
  7319  00149C  2A06               	incf	___ftpack@exp,f,c
  7320  00149E  D82D               	call	PL38	;call to abstracted procedure
  7321  0014A0                     l3858:
  7322  0014A0  6A08               	clrf	??___ftpack& (0+255),c
  7323  0014A2  6A09               	clrf	(??___ftpack+1)& (0+255),c
  7324  0014A4  0EFE               	movlw	254
  7325  0014A6  1405               	andwf	___ftpack@arg+2,w,c
  7326  0014A8  D82D               	call	PL42	;call to abstracted procedure
  7327  0014AA  E007               	bz	l3864
  7328  0014AC  D7F7               	goto	l3856
  7329  0014AE                     l3860:
  7330  0014AE  2A06               	incf	___ftpack@exp,f,c
  7331  0014B0  2A03               	incf	___ftpack@arg,f,c
  7332  0014B2  0E00               	movlw	0
  7333  0014B4  2204               	addwfc	___ftpack@arg+1,f,c
  7334  0014B6  2205               	addwfc	___ftpack@arg+2,f,c
  7335  0014B8  D820               	call	PL38	;call to abstracted procedure
  7336  0014BA                     l3864:
  7337  0014BA  6A08               	clrf	??___ftpack& (0+255),c
  7338  0014BC  6A09               	clrf	(??___ftpack+1)& (0+255),c
  7339  0014BE  5005               	movf	___ftpack@arg+2,w,c
  7340  0014C0  D821               	call	PL42	;call to abstracted procedure
  7341  0014C2  E006               	bz	l3868
  7342  0014C4  D7F4               	goto	l3860
  7343  0014C6                     l3866:
  7344  0014C6  0606               	decf	___ftpack@exp,f,c
  7345  0014C8  90D8               	bcf	status,0,c
  7346  0014CA  3603               	rlcf	___ftpack@arg,f,c
  7347  0014CC  3604               	rlcf	___ftpack@arg+1,f,c
  7348  0014CE  3605               	rlcf	___ftpack@arg+2,f,c
  7349  0014D0                     l3868:
  7350  0014D0  BE04               	btfsc	___ftpack@arg+1,7,c
  7351  0014D2  D003               	goto	u2400
  7352  0014D4  0E02               	movlw	2
  7353  0014D6  6006               	cpfslt	___ftpack@exp,c
  7354  0014D8  D7F6               	goto	l3866
  7355  0014DA                     u2400:
  7356  0014DA  A006               	btfss	___ftpack@exp,0,c
  7357  0014DC  9E04               	bcf	___ftpack@arg+1,7,c
  7358  0014DE  90D8               	bcf	status,0,c
  7359  0014E0  3206               	rrcf	___ftpack@exp,f,c
  7360  0014E2  5006               	movf	___ftpack@exp,w,c
  7361  0014E4  1205               	iorwf	___ftpack@arg+2,f,c
  7362  0014E6  5007               	movf	___ftpack@sign,w,c
  7363  0014E8  E001               	bz	l3882
  7364  0014EA  8E05               	bsf	___ftpack@arg+2,7,c
  7365  0014EC                     l3882:
  7366  0014EC  C003  F003         	movff	___ftpack@arg,?___ftpack
  7367  0014F0  C004  F004         	movff	___ftpack@arg+1,?___ftpack+1
  7368  0014F4  C005  F005         	movff	___ftpack@arg+2,?___ftpack+2
  7369  0014F8  0012               	return		;funcret
  7370  0014FA                     __end_of___ftpack:
  7371                           	opt stack 0
  7372  0014FA                     PL38:
  7373                           	opt stack 20
  7374  0014FA  90D8               	bcf	status,0,c
  7375  0014FC  3205               	rrcf	___ftpack@arg+2,f,c
  7376  0014FE  3204               	rrcf	___ftpack@arg+1,f,c
  7377  001500  3203               	rrcf	___ftpack@arg,f,c
  7378  001502  0012               	return	
  7379  001504                     __end_ofPL38:
  7380                           	opt stack 0
  7381  001504                     PL42:
  7382                           	opt stack 20
  7383  001504  6E0A               	movwf	(??___ftpack+2)& (0+255),c
  7384  001506  5008               	movf	??___ftpack,w,c
  7385  001508  1009               	iorwf	??___ftpack+1,w,c
  7386  00150A  100A               	iorwf	??___ftpack+2,w,c
  7387  00150C  0012               	return	
  7388  00150E                     __end_ofPL42:
  7389                           	opt stack 0
  7390                           tosu	equ	0xFFF
  7391                           tosh	equ	0xFFE
  7392                           tosl	equ	0xFFD
  7393                           pclath	equ	0xFFA
  7394                           tblptru	equ	0xFF8
  7395                           tblptrh	equ	0xFF7
  7396                           tblptrl	equ	0xFF6
  7397                           tablat	equ	0xFF5
  7398                           prodl	equ	0xFF3
  7399                           intcon	equ	0xFF2
  7400                           postinc0	equ	0xFEE
  7401                           wreg	equ	0xFE8
  7402                           postinc2	equ	0xFDE
  7403                           postdec2	equ	0xFDD
  7404                           fsr2h	equ	0xFDA
  7405                           fsr2l	equ	0xFD9
  7406                           status	equ	0xFD8
  7407                           
  7408 ;; *************** function _CompareLoadValue *****************
  7409 ;; Defined at:
  7410 ;;		line 85 in file "counting_ripples.c"
  7411 ;; Parameters:    Size  Location     Type
  7412 ;;		None
  7413 ;; Auto vars:     Size  Location     Type
  7414 ;;		None
  7415 ;; Return value:  Size  Location     Type
  7416 ;;                  1    wreg      void 
  7417 ;; Registers used:
  7418 ;;		wreg, status,2, status,0
  7419 ;; Tracked objects:
  7420 ;;		On entry : 0/0
  7421 ;;		On exit  : 3F/0
  7422 ;;		Unchanged: 0/0
  7423 ;; Data sizes:     COMRAM   BANK0   BANK1   BANK2   BANK3   BANK4   BANK5   BANK6   BANK7   BANK8   BANK9  BANK10  BANK1
      +1  BANK12  BANK14
  7424 ;;      Params:         0       0       0       0       0       0       0       0       0       0       0       0       
      +0       0       0
  7425 ;;      Locals:         0       0       0       0       0       0       0       0       0       0       0       0       
      +0       0       0
  7426 ;;      Temps:          6       0       0       0       0       0       0       0       0       0       0       0       
      +0       0       0
  7427 ;;      Totals:         6       0       0       0       0       0       0       0       0       0       0       0       
      +0       0       0
  7428 ;;Total ram usage:        6 bytes
  7429 ;; Hardware stack levels used:    1
  7430 ;; Hardware stack levels required when called:    5
  7431 ;; This function calls:
  7432 ;;		Nothing
  7433 ;; This function is called by:
  7434 ;;		_ReadInput
  7435 ;;		_ResumeMotor
  7436 ;;		_CheckHomeButton
  7437 ;;		_CheckEndButton
  7438 ;; This function uses a non-reentrant model
  7439 ;;
  7440                           
  7441                           	psect	text59
  7442  001CCC                     __ptext59:
  7443                           	opt stack 0
  7444  001CCC                     _CompareLoadValue:
  7445                           	opt stack 24
  7446                           
  7447                           ;counting_ripples.c: 87: compareLoadValue = ((expectedRippleCount - 10 )>> 1) + 0x7FFF +
      +                           1;
  7448                           
  7449                           ;incstack = 0
  7450  001CCC  0EF6               	movlw	246
  7451  001CCE  6E03               	movwf	??_CompareLoadValue& (0+255),c
  7452  001CD0  6804               	setf	(??_CompareLoadValue+1)& (0+255),c
  7453  001CD2  C062  F005         	movff	_expectedRippleCount,??_CompareLoadValue+2
  7454  001CD6  C063  F006         	movff	_expectedRippleCount+1,??_CompareLoadValue+3
  7455  001CDA  5003               	movf	??_CompareLoadValue,w,c
  7456  001CDC  2605               	addwf	??_CompareLoadValue+2,f,c
  7457  001CDE  5004               	movf	??_CompareLoadValue+1,w,c
  7458  001CE0  2206               	addwfc	??_CompareLoadValue+3,f,c
  7459  001CE2  90D8               	bcf	status,0,c
  7460  001CE4  3006               	rrcf	??_CompareLoadValue+3,w,c
  7461  001CE6  6E08               	movwf	(??_CompareLoadValue+5)& (0+255),c
  7462  001CE8  3005               	rrcf	??_CompareLoadValue+2,w,c
  7463  001CEA  6E07               	movwf	(??_CompareLoadValue+4)& (0+255),c
  7464  001CEC  0E00               	movlw	0
  7465  001CEE  2407               	addwf	??_CompareLoadValue+4,w,c
  7466  001CF0  0100               	movlb	0	; () banked
  7467  001CF2  6F66               	movwf	_compareLoadValue& (0+255),b
  7468  001CF4  0E80               	movlw	128
  7469  001CF6  2008               	addwfc	??_CompareLoadValue+5,w,c
  7470  001CF8  6F67               	movwf	(_compareLoadValue+1)& (0+255),b
  7471                           
  7472                           ; BSR set to: 0
  7473  001CFA  0012               	return		;funcret
  7474  001CFC                     __end_of_CompareLoadValue:
  7475                           	opt stack 0
  7476                           tosu	equ	0xFFF
  7477                           tosh	equ	0xFFE
  7478                           tosl	equ	0xFFD
  7479                           pclath	equ	0xFFA
  7480                           tblptru	equ	0xFF8
  7481                           tblptrh	equ	0xFF7
  7482                           tblptrl	equ	0xFF6
  7483                           tablat	equ	0xFF5
  7484                           prodl	equ	0xFF3
  7485                           intcon	equ	0xFF2
  7486                           postinc0	equ	0xFEE
  7487                           wreg	equ	0xFE8
  7488                           postinc2	equ	0xFDE
  7489                           postdec2	equ	0xFDD
  7490                           fsr2h	equ	0xFDA
  7491                           fsr2l	equ	0xFD9
  7492                           status	equ	0xFD8
  7493                           
  7494 ;; *************** function _CWG_AutoShutdownEventSet *****************
  7495 ;; Defined at:
  7496 ;;		line 111 in file "mcc_generated_files/cwg.c"
  7497 ;; Parameters:    Size  Location     Type
  7498 ;;		None
  7499 ;; Auto vars:     Size  Location     Type
  7500 ;;		None
  7501 ;; Return value:  Size  Location     Type
  7502 ;;                  1    wreg      void 
  7503 ;; Registers used:
  7504 ;;		None
  7505 ;; Tracked objects:
  7506 ;;		On entry : 3F/F
  7507 ;;		On exit  : 3F/F
  7508 ;;		Unchanged: 0/0
  7509 ;; Data sizes:     COMRAM   BANK0   BANK1   BANK2   BANK3   BANK4   BANK5   BANK6   BANK7   BANK8   BANK9  BANK10  BANK1
      +1  BANK12  BANK14
  7510 ;;      Params:         0       0       0       0       0       0       0       0       0       0       0       0       
      +0       0       0
  7511 ;;      Locals:         0       0       0       0       0       0       0       0       0       0       0       0       
      +0       0       0
  7512 ;;      Temps:          0       0       0       0       0       0       0       0       0       0       0       0       
      +0       0       0
  7513 ;;      Totals:         0       0       0       0       0       0       0       0       0       0       0       0       
      +0       0       0
  7514 ;;Total ram usage:        0 bytes
  7515 ;; Hardware stack levels used:    1
  7516 ;; Hardware stack levels required when called:    5
  7517 ;; This function calls:
  7518 ;;		Nothing
  7519 ;; This function is called by:
  7520 ;;		_main
  7521 ;; This function uses a non-reentrant model
  7522 ;;
  7523                           
  7524                           	psect	text60
  7525  001FE4                     __ptext60:
  7526                           	opt stack 0
  7527  001FE4                     _CWG_AutoShutdownEventSet:
  7528                           	opt stack 25
  7529                           
  7530                           ; BSR set to: 15
  7531                           ;cwg.c: 113: CWG1AS0bits.CWG1SHUTDOWN = 1;
  7532                           
  7533                           ; BSR set to: 0
  7534                           ;incstack = 0
  7535  001FE4  8F41               	bsf	65,7,b	;volatile
  7536                           
  7537                           ; BSR set to: 15
  7538  001FE6  0012               	return		;funcret
  7539  001FE8                     __end_of_CWG_AutoShutdownEventSet:
  7540                           	opt stack 0
  7541                           tosu	equ	0xFFF
  7542                           tosh	equ	0xFFE
  7543                           tosl	equ	0xFFD
  7544                           pclath	equ	0xFFA
  7545                           tblptru	equ	0xFF8
  7546                           tblptrh	equ	0xFF7
  7547                           tblptrl	equ	0xFF6
  7548                           tablat	equ	0xFF5
  7549                           prodl	equ	0xFF3
  7550                           intcon	equ	0xFF2
  7551                           postinc0	equ	0xFEE
  7552                           wreg	equ	0xFE8
  7553                           postinc2	equ	0xFDE
  7554                           postdec2	equ	0xFDD
  7555                           fsr2h	equ	0xFDA
  7556                           fsr2l	equ	0xFD9
  7557                           status	equ	0xFD8
  7558                           
  7559 ;; *************** function _CCP1_CompareSetInterruptHandler *****************
  7560 ;; Defined at:
  7561 ;;		line 53 in file "interrupt_handlers.c"
  7562 ;; Parameters:    Size  Location     Type
  7563 ;;  CompareInter    2    2[COMRAM] PTR FTN()void 
  7564 ;;		 -> Compare_ISR(1), 
  7565 ;; Auto vars:     Size  Location     Type
  7566 ;;		None
  7567 ;; Return value:  Size  Location     Type
  7568 ;;                  1    wreg      void 
  7569 ;; Registers used:
  7570 ;;		wreg, status,2, status,0
  7571 ;; Tracked objects:
  7572 ;;		On entry : 3F/F
  7573 ;;		On exit  : 3F/F
  7574 ;;		Unchanged: 3E/0
  7575 ;; Data sizes:     COMRAM   BANK0   BANK1   BANK2   BANK3   BANK4   BANK5   BANK6   BANK7   BANK8   BANK9  BANK10  BANK1
      +1  BANK12  BANK14
  7576 ;;      Params:         2       0       0       0       0       0       0       0       0       0       0       0       
      +0       0       0
  7577 ;;      Locals:         0       0       0       0       0       0       0       0       0       0       0       0       
      +0       0       0
  7578 ;;      Temps:          0       0       0       0       0       0       0       0       0       0       0       0       
      +0       0       0
  7579 ;;      Totals:         2       0       0       0       0       0       0       0       0       0       0       0       
      +0       0       0
  7580 ;;Total ram usage:        2 bytes
  7581 ;; Hardware stack levels used:    1
  7582 ;; Hardware stack levels required when called:    5
  7583 ;; This function calls:
  7584 ;;		Nothing
  7585 ;; This function is called by:
  7586 ;;		_main
  7587 ;; This function uses a non-reentrant model
  7588 ;;
  7589                           
  7590                           	psect	text61
  7591  001FC2                     __ptext61:
  7592                           	opt stack 0
  7593  001FC2                     _CCP1_CompareSetInterruptHandler:
  7594                           	opt stack 25
  7595                           
  7596                           ; BSR set to: 15
  7597                           ;interrupt_handlers.c: 55: CCP1_CompareInterruptHandler = CompareInterruptHandler;
  7598                           
  7599                           ; BSR set to: 15
  7600                           ;incstack = 0
  7601  001FC2  C003  F076         	movff	CCP1_CompareSetInterruptHandler@CompareInterruptHandler,_CCP1_CompareInterruptHan
      +                          dler
  7602  001FC6  C004  F077         	movff	CCP1_CompareSetInterruptHandler@CompareInterruptHandler+1,_CCP1_CompareInterruptH
      +                          andler+1
  7603                           
  7604                           ; BSR set to: 15
  7605  001FCA  0012               	return		;funcret
  7606  001FCC                     __end_of_CCP1_CompareSetInterruptHandler:
  7607                           	opt stack 0
  7608                           tosu	equ	0xFFF
  7609                           tosh	equ	0xFFE
  7610                           tosl	equ	0xFFD
  7611                           pclath	equ	0xFFA
  7612                           tblptru	equ	0xFF8
  7613                           tblptrh	equ	0xFF7
  7614                           tblptrl	equ	0xFF6
  7615                           tablat	equ	0xFF5
  7616                           prodl	equ	0xFF3
  7617                           intcon	equ	0xFF2
  7618                           postinc0	equ	0xFEE
  7619                           wreg	equ	0xFE8
  7620                           postinc2	equ	0xFDE
  7621                           postdec2	equ	0xFDD
  7622                           fsr2h	equ	0xFDA
  7623                           fsr2l	equ	0xFD9
  7624                           status	equ	0xFD8
  7625                           
  7626 ;; *************** function _INTERRUPT_InterruptManager *****************
  7627 ;; Defined at:
  7628 ;;		line 58 in file "mcc_generated_files/interrupt_manager.c"
  7629 ;; Parameters:    Size  Location     Type
  7630 ;;		None
  7631 ;; Auto vars:     Size  Location     Type
  7632 ;;		None
  7633 ;; Return value:  Size  Location     Type
  7634 ;;                  1    wreg      void 
  7635 ;; Registers used:
  7636 ;;		wreg, status,2, status,0, pclath, tosl, cstack
  7637 ;; Tracked objects:
  7638 ;;		On entry : 0/0
  7639 ;;		On exit  : 0/0
  7640 ;;		Unchanged: 0/0
  7641 ;; Data sizes:     COMRAM   BANK0   BANK1   BANK2   BANK3   BANK4   BANK5   BANK6   BANK7   BANK8   BANK9  BANK10  BANK1
      +1  BANK12  BANK14
  7642 ;;      Params:         0       0       0       0       0       0       0       0       0       0       0       0       
      +0       0       0
  7643 ;;      Locals:         0       0       0       0       0       0       0       0       0       0       0       0       
      +0       0       0
  7644 ;;      Temps:          2       0       0       0       0       0       0       0       0       0       0       0       
      +0       0       0
  7645 ;;      Totals:         2       0       0       0       0       0       0       0       0       0       0       0       
      +0       0       0
  7646 ;;Total ram usage:        2 bytes
  7647 ;; Hardware stack levels used:    1
  7648 ;; Hardware stack levels required when called:    4
  7649 ;; This function calls:
  7650 ;;		_CCP1_CompareISR
  7651 ;;		_TMR1_GATE_ISR
  7652 ;;		_TMR4_ISR
  7653 ;; This function is called by:
  7654 ;;		Interrupt level 2
  7655 ;; This function uses a non-reentrant model
  7656 ;;
  7657                           
  7658                           	psect	intcode
  7659  000008                     __pintcode:
  7660                           	opt stack 0
  7661  000008                     _INTERRUPT_InterruptManager:
  7662                           	opt stack 20
  7663                           
  7664                           ; BSR set to: 15
  7665                           ;incstack = 0
  7666  000008  825C               	bsf	btemp,1,c	;set compiler interrupt flag (level 2)
  7667  00000A  CFFA F001          	movff	pclath,??_INTERRUPT_InterruptManager
  7668  00000E  CFFB F002          	movff	pclatu,??_INTERRUPT_InterruptManager+1
  7669                           
  7670                           ;interrupt_manager.c: 61: if(INTCONbits.PEIE == 1)
  7671  000012  ACF2               	btfss	intcon,6,c	;volatile
  7672  000014  D012               	goto	i2l397
  7673                           
  7674                           ;interrupt_manager.c: 62: {
  7675                           ;interrupt_manager.c: 63: if(PIE5bits.TMR1GIE == 1 && PIR5bits.TMR1GIF == 1)
  7676  000016  010E               	movlb	14	; () banked
  7677  000018  B1C2               	btfsc	194,0,b	;volatile
  7678                           
  7679                           ; BSR set to: 14
  7680  00001A  A1CA               	btfss	202,0,b	;volatile
  7681  00001C  D003               	goto	i2l396
  7682                           
  7683                           ; BSR set to: 14
  7684                           ;interrupt_manager.c: 64: {
  7685                           ;interrupt_manager.c: 65: TMR1_GATE_ISR();
  7686  00001E  ECF4  F00F         	call	_TMR1_GATE_ISR	;wreg free
  7687                           
  7688                           ;interrupt_manager.c: 66: }
  7689  000022  D00B               	goto	i2l397
  7690  000024                     i2l396:
  7691                           
  7692                           ; BSR set to: 14
  7693                           ;interrupt_manager.c: 67: else if(PIE6bits.CCP1IE == 1 && PIR6bits.CCP1IF == 1)
  7694  000024  B1C3               	btfsc	195,0,b	;volatile
  7695                           
  7696                           ; BSR set to: 14
  7697  000026  A1CB               	btfss	203,0,b	;volatile
  7698  000028  D003               	goto	i2l398
  7699                           
  7700                           ; BSR set to: 14
  7701                           ;interrupt_manager.c: 68: {
  7702                           ;interrupt_manager.c: 69: CCP1_CompareISR();
  7703  00002A  EC0C  F00F         	call	_CCP1_CompareISR	;wreg free
  7704                           
  7705                           ;interrupt_manager.c: 70: }
  7706  00002E  D005               	goto	i2l397
  7707  000030                     i2l398:
  7708                           
  7709                           ; BSR set to: 14
  7710                           ;interrupt_manager.c: 71: else if(PIE4bits.TMR4IE == 1 && PIR4bits.TMR4IF == 1)
  7711  000030  B7C1               	btfsc	193,3,b	;volatile
  7712                           
  7713                           ; BSR set to: 14
  7714  000032  A7C9               	btfss	201,3,b	;volatile
  7715  000034  D002               	goto	i2l397
  7716                           
  7717                           ; BSR set to: 14
  7718                           ;interrupt_manager.c: 72: {
  7719                           ;interrupt_manager.c: 73: TMR4_ISR();
  7720  000036  ECFD  F00E         	call	_TMR4_ISR	;wreg free
  7721  00003A                     i2l397:
  7722                           
  7723                           ; BSR set to: 14
  7724                           ;interrupt_manager.c: 78: }
  7725                           ;interrupt_manager.c: 79: }
  7726  00003A  C002  FFFB         	movff	??_INTERRUPT_InterruptManager+1,pclatu
  7727  00003E  C001  FFFA         	movff	??_INTERRUPT_InterruptManager,pclath
  7728  000042  925C               	bcf	btemp,1,c	;clear compiler interrupt flag (level 2)
  7729  000044  0011               	retfie		f
  7730  000046                     __end_of_INTERRUPT_InterruptManager:
  7731                           	opt stack 0
  7732                           tosu	equ	0xFFF
  7733                           tosh	equ	0xFFE
  7734                           tosl	equ	0xFFD
  7735                           pclatu	equ	0xFFB
  7736                           pclath	equ	0xFFA
  7737                           tblptru	equ	0xFF8
  7738                           tblptrh	equ	0xFF7
  7739                           tblptrl	equ	0xFF6
  7740                           tablat	equ	0xFF5
  7741                           prodl	equ	0xFF3
  7742                           intcon	equ	0xFF2
  7743                           postinc0	equ	0xFEE
  7744                           wreg	equ	0xFE8
  7745                           postinc2	equ	0xFDE
  7746                           postdec2	equ	0xFDD
  7747                           fsr2h	equ	0xFDA
  7748                           fsr2l	equ	0xFD9
  7749                           status	equ	0xFD8
  7750                           
  7751 ;; *************** function _TMR4_ISR *****************
  7752 ;; Defined at:
  7753 ;;		line 165 in file "mcc_generated_files/tmr4.c"
  7754 ;; Parameters:    Size  Location     Type
  7755 ;;		None
  7756 ;; Auto vars:     Size  Location     Type
  7757 ;;		None
  7758 ;; Return value:  Size  Location     Type
  7759 ;;                  1    wreg      void 
  7760 ;; Registers used:
  7761 ;;		wreg, status,2, status,0, pclath, tosl, cstack
  7762 ;; Tracked objects:
  7763 ;;		On entry : 3F/E
  7764 ;;		On exit  : 0/0
  7765 ;;		Unchanged: 0/0
  7766 ;; Data sizes:     COMRAM   BANK0   BANK1   BANK2   BANK3   BANK4   BANK5   BANK6   BANK7   BANK8   BANK9  BANK10  BANK1
      +1  BANK12  BANK14
  7767 ;;      Params:         0       0       0       0       0       0       0       0       0       0       0       0       
      +0       0       0
  7768 ;;      Locals:         0       0       0       0       0       0       0       0       0       0       0       0       
      +0       0       0
  7769 ;;      Temps:          0       0       0       0       0       0       0       0       0       0       0       0       
      +0       0       0
  7770 ;;      Totals:         0       0       0       0       0       0       0       0       0       0       0       0       
      +0       0       0
  7771 ;;Total ram usage:        0 bytes
  7772 ;; Hardware stack levels used:    1
  7773 ;; Hardware stack levels required when called:    3
  7774 ;; This function calls:
  7775 ;;		Absolute function
  7776 ;;		_Stall_ISR
  7777 ;;		_TMR4_DefaultInterruptHandler
  7778 ;; This function is called by:
  7779 ;;		_INTERRUPT_InterruptManager
  7780 ;; This function uses a non-reentrant model
  7781 ;;
  7782                           
  7783                           	psect	text63
  7784  001DFA                     __ptext63:
  7785                           	opt stack 0
  7786  001DFA                     _TMR4_ISR:
  7787                           	opt stack 20
  7788                           
  7789                           ; BSR set to: 14
  7790                           ;tmr4.c: 169: PIR4bits.TMR4IF = 0;
  7791                           
  7792                           ;incstack = 0
  7793  001DFA  97C9               	bcf	201,3,b	;volatile
  7794                           
  7795                           ; BSR set to: 14
  7796                           ;tmr4.c: 171: if(TMR4_InterruptHandler)
  7797  001DFC  0100               	movlb	0	; () banked
  7798  001DFE  5178               	movf	_TMR4_InterruptHandler& (0+255),w,b
  7799  001E00  1179               	iorwf	(_TMR4_InterruptHandler+1)& (0+255),w,b
  7800  001E02  B4D8               	btfsc	status,2,c
  7801  001E04  0012               	return	
  7802                           
  7803                           ; BSR set to: 0
  7804                           ;tmr4.c: 172: {
  7805                           ;tmr4.c: 173: TMR4_InterruptHandler();
  7806  001E06  0005               	push	
  7807  001E08  6EFA               	movwf	pclath,c
  7808  001E0A  5178               	movf	_TMR4_InterruptHandler& (0+255),w,b
  7809  001E0C  6EFD               	movwf	tosl,c
  7810  001E0E  5179               	movf	(_TMR4_InterruptHandler+1)& (0+255),w,b
  7811  001E10  6EFE               	movwf	tosh,c
  7812  001E12  6AFF               	clrf	tosu,c
  7813  001E14  50FA               	movf	pclath,w,c
  7814  001E16  0012               	return		;indir
  7815  001E18                     __end_of_TMR4_ISR:
  7816                           	opt stack 0
  7817                           tosu	equ	0xFFF
  7818                           tosh	equ	0xFFE
  7819                           tosl	equ	0xFFD
  7820                           pclatu	equ	0xFFB
  7821                           pclath	equ	0xFFA
  7822                           tblptru	equ	0xFF8
  7823                           tblptrh	equ	0xFF7
  7824                           tblptrl	equ	0xFF6
  7825                           tablat	equ	0xFF5
  7826                           prodl	equ	0xFF3
  7827                           intcon	equ	0xFF2
  7828                           postinc0	equ	0xFEE
  7829                           wreg	equ	0xFE8
  7830                           postinc2	equ	0xFDE
  7831                           postdec2	equ	0xFDD
  7832                           fsr2h	equ	0xFDA
  7833                           fsr2l	equ	0xFD9
  7834                           status	equ	0xFD8
  7835                           
  7836 ;; *************** function _Stall_ISR *****************
  7837 ;; Defined at:
  7838 ;;		line 46 in file "stall_detection.c"
  7839 ;; Parameters:    Size  Location     Type
  7840 ;;		None
  7841 ;; Auto vars:     Size  Location     Type
  7842 ;;		None
  7843 ;; Return value:  Size  Location     Type
  7844 ;;                  1    wreg      void 
  7845 ;; Registers used:
  7846 ;;		wreg, status,2, cstack
  7847 ;; Tracked objects:
  7848 ;;		On entry : 3F/0
  7849 ;;		On exit  : 3F/0
  7850 ;;		Unchanged: 0/0
  7851 ;; Data sizes:     COMRAM   BANK0   BANK1   BANK2   BANK3   BANK4   BANK5   BANK6   BANK7   BANK8   BANK9  BANK10  BANK1
      +1  BANK12  BANK14
  7852 ;;      Params:         0       0       0       0       0       0       0       0       0       0       0       0       
      +0       0       0
  7853 ;;      Locals:         0       0       0       0       0       0       0       0       0       0       0       0       
      +0       0       0
  7854 ;;      Temps:          0       0       0       0       0       0       0       0       0       0       0       0       
      +0       0       0
  7855 ;;      Totals:         0       0       0       0       0       0       0       0       0       0       0       0       
      +0       0       0
  7856 ;;Total ram usage:        0 bytes
  7857 ;; Hardware stack levels used:    1
  7858 ;; Hardware stack levels required when called:    2
  7859 ;; This function calls:
  7860 ;;		_BrakingMechanism
  7861 ;;		_TMR1_StopTimer
  7862 ;;		_TMR4_StopTimer
  7863 ;; This function is called by:
  7864 ;;		_StallDetection
  7865 ;;		_TMR4_ISR
  7866 ;; This function uses a non-reentrant model
  7867 ;;
  7868                           
  7869                           	psect	text64
  7870  001F14                     __ptext64:
  7871                           	opt stack 0
  7872  001F14                     _Stall_ISR:
  7873                           	opt stack 20
  7874                           
  7875                           ; BSR set to: 0
  7876                           
  7877                           ;incstack = 0
  7878                           ;stall_detection.c: 48: do { LATAbits.LATA6 = 1; } while(0);
  7879  001F14  8C82               	bsf	3970,6,c	;volatile
  7880                           
  7881                           ; BSR set to: 0
  7882                           ;stall_detection.c: 49: BrakingMechanism();
  7883  001F16  ECD6  F00F         	call	_BrakingMechanism	;wreg free
  7884                           
  7885                           ; BSR set to: 15
  7886                           ;stall_detection.c: 50: TMR4_StopTimer();
  7887  001F1A  ECF6  F00F         	call	_TMR4_StopTimer	;wreg free
  7888                           
  7889                           ; BSR set to: 15
  7890                           ;stall_detection.c: 51: TMR1_StopTimer();
  7891  001F1E  ECFA  F00F         	call	_TMR1_StopTimer	;wreg free
  7892                           
  7893                           ; BSR set to: 15
  7894                           ;stall_detection.c: 52: motorStalled = 1;
  7895  001F22  0E01               	movlw	1
  7896  001F24  0100               	movlb	0	; () banked
  7897  001F26  6F70               	movwf	_motorStalled& (0+255),b
  7898                           
  7899                           ; BSR set to: 0
  7900  001F28  0C01               	retlw	1	;funcret
  7901  001F2A                     __end_of_Stall_ISR:
  7902                           	opt stack 0
  7903                           tosu	equ	0xFFF
  7904                           tosh	equ	0xFFE
  7905                           tosl	equ	0xFFD
  7906                           pclatu	equ	0xFFB
  7907                           pclath	equ	0xFFA
  7908                           tblptru	equ	0xFF8
  7909                           tblptrh	equ	0xFF7
  7910                           tblptrl	equ	0xFF6
  7911                           tablat	equ	0xFF5
  7912                           prodl	equ	0xFF3
  7913                           intcon	equ	0xFF2
  7914                           postinc0	equ	0xFEE
  7915                           wreg	equ	0xFE8
  7916                           postinc2	equ	0xFDE
  7917                           postdec2	equ	0xFDD
  7918                           fsr2h	equ	0xFDA
  7919                           fsr2l	equ	0xFD9
  7920                           status	equ	0xFD8
  7921                           
  7922 ;; *************** function _TMR4_DefaultInterruptHandler *****************
  7923 ;; Defined at:
  7924 ;;		line 182 in file "mcc_generated_files/tmr4.c"
  7925 ;; Parameters:    Size  Location     Type
  7926 ;;		None
  7927 ;; Auto vars:     Size  Location     Type
  7928 ;;		None
  7929 ;; Return value:  Size  Location     Type
  7930 ;;                  1    wreg      void 
  7931 ;; Registers used:
  7932 ;;		None
  7933 ;; Tracked objects:
  7934 ;;		On entry : 3F/0
  7935 ;;		On exit  : 3F/0
  7936 ;;		Unchanged: 3F/0
  7937 ;; Data sizes:     COMRAM   BANK0   BANK1   BANK2   BANK3   BANK4   BANK5   BANK6   BANK7   BANK8   BANK9  BANK10  BANK1
      +1  BANK12  BANK14
  7938 ;;      Params:         0       0       0       0       0       0       0       0       0       0       0       0       
      +0       0       0
  7939 ;;      Locals:         0       0       0       0       0       0       0       0       0       0       0       0       
      +0       0       0
  7940 ;;      Temps:          0       0       0       0       0       0       0       0       0       0       0       0       
      +0       0       0
  7941 ;;      Totals:         0       0       0       0       0       0       0       0       0       0       0       0       
      +0       0       0
  7942 ;;Total ram usage:        0 bytes
  7943 ;; Hardware stack levels used:    1
  7944 ;; This function calls:
  7945 ;;		Nothing
  7946 ;; This function is called by:
  7947 ;;		_TMR4_Initialize
  7948 ;;		_TMR4_ISR
  7949 ;; This function uses a non-reentrant model
  7950 ;;
  7951                           
  7952                           	psect	text65
  7953  001FFA                     __ptext65:
  7954                           	opt stack 0
  7955  001FFA                     _TMR4_DefaultInterruptHandler:
  7956                           	opt stack 22
  7957                           
  7958                           ; BSR set to: 0
  7959                           
  7960                           ; BSR set to: 0
  7961                           ;incstack = 0
  7962  001FFA  0012               	return		;funcret
  7963  001FFC                     __end_of_TMR4_DefaultInterruptHandler:
  7964                           	opt stack 0
  7965                           tosu	equ	0xFFF
  7966                           tosh	equ	0xFFE
  7967                           tosl	equ	0xFFD
  7968                           pclatu	equ	0xFFB
  7969                           pclath	equ	0xFFA
  7970                           tblptru	equ	0xFF8
  7971                           tblptrh	equ	0xFF7
  7972                           tblptrl	equ	0xFF6
  7973                           tablat	equ	0xFF5
  7974                           prodl	equ	0xFF3
  7975                           intcon	equ	0xFF2
  7976                           postinc0	equ	0xFEE
  7977                           wreg	equ	0xFE8
  7978                           postinc2	equ	0xFDE
  7979                           postdec2	equ	0xFDD
  7980                           fsr2h	equ	0xFDA
  7981                           fsr2l	equ	0xFD9
  7982                           status	equ	0xFD8
  7983                           
  7984 ;; *************** function _TMR1_GATE_ISR *****************
  7985 ;; Defined at:
  7986 ;;		line 30 in file "interrupt_handlers.c"
  7987 ;; Parameters:    Size  Location     Type
  7988 ;;		None
  7989 ;; Auto vars:     Size  Location     Type
  7990 ;;		None
  7991 ;; Return value:  Size  Location     Type
  7992 ;;                  1    wreg      void 
  7993 ;; Registers used:
  7994 ;;		None
  7995 ;; Tracked objects:
  7996 ;;		On entry : 3F/E
  7997 ;;		On exit  : 3F/E
  7998 ;;		Unchanged: 0/0
  7999 ;; Data sizes:     COMRAM   BANK0   BANK1   BANK2   BANK3   BANK4   BANK5   BANK6   BANK7   BANK8   BANK9  BANK10  BANK1
      +1  BANK12  BANK14
  8000 ;;      Params:         0       0       0       0       0       0       0       0       0       0       0       0       
      +0       0       0
  8001 ;;      Locals:         0       0       0       0       0       0       0       0       0       0       0       0       
      +0       0       0
  8002 ;;      Temps:          0       0       0       0       0       0       0       0       0       0       0       0       
      +0       0       0
  8003 ;;      Totals:         0       0       0       0       0       0       0       0       0       0       0       0       
      +0       0       0
  8004 ;;Total ram usage:        0 bytes
  8005 ;; Hardware stack levels used:    1
  8006 ;; This function calls:
  8007 ;;		Nothing
  8008 ;; This function is called by:
  8009 ;;		_INTERRUPT_InterruptManager
  8010 ;; This function uses a non-reentrant model
  8011 ;;
  8012                           
  8013                           	psect	text66
  8014  001FE8                     __ptext66:
  8015                           	opt stack 0
  8016  001FE8                     _TMR1_GATE_ISR:
  8017                           	opt stack 23
  8018                           
  8019                           ; BSR set to: 14
  8020                           ;interrupt_handlers.c: 32: PIR5bits.TMR1GIF = 0;
  8021                           
  8022                           ; BSR set to: 0
  8023                           ;incstack = 0
  8024  001FE8  91CA               	bcf	202,0,b	;volatile
  8025                           
  8026                           ; BSR set to: 14
  8027  001FEA  0012               	return		;funcret
  8028  001FEC                     __end_of_TMR1_GATE_ISR:
  8029                           	opt stack 0
  8030                           tosu	equ	0xFFF
  8031                           tosh	equ	0xFFE
  8032                           tosl	equ	0xFFD
  8033                           pclatu	equ	0xFFB
  8034                           pclath	equ	0xFFA
  8035                           tblptru	equ	0xFF8
  8036                           tblptrh	equ	0xFF7
  8037                           tblptrl	equ	0xFF6
  8038                           tablat	equ	0xFF5
  8039                           prodl	equ	0xFF3
  8040                           intcon	equ	0xFF2
  8041                           postinc0	equ	0xFEE
  8042                           wreg	equ	0xFE8
  8043                           postinc2	equ	0xFDE
  8044                           postdec2	equ	0xFDD
  8045                           fsr2h	equ	0xFDA
  8046                           fsr2l	equ	0xFD9
  8047                           status	equ	0xFD8
  8048                           
  8049 ;; *************** function _CCP1_CompareISR *****************
  8050 ;; Defined at:
  8051 ;;		line 44 in file "interrupt_handlers.c"
  8052 ;; Parameters:    Size  Location     Type
  8053 ;;		None
  8054 ;; Auto vars:     Size  Location     Type
  8055 ;;		None
  8056 ;; Return value:  Size  Location     Type
  8057 ;;                  1    wreg      void 
  8058 ;; Registers used:
  8059 ;;		wreg, status,2, status,0, pclath, tosl, cstack
  8060 ;; Tracked objects:
  8061 ;;		On entry : 3F/E
  8062 ;;		On exit  : 0/0
  8063 ;;		Unchanged: 0/0
  8064 ;; Data sizes:     COMRAM   BANK0   BANK1   BANK2   BANK3   BANK4   BANK5   BANK6   BANK7   BANK8   BANK9  BANK10  BANK1
      +1  BANK12  BANK14
  8065 ;;      Params:         0       0       0       0       0       0       0       0       0       0       0       0       
      +0       0       0
  8066 ;;      Locals:         0       0       0       0       0       0       0       0       0       0       0       0       
      +0       0       0
  8067 ;;      Temps:          0       0       0       0       0       0       0       0       0       0       0       0       
      +0       0       0
  8068 ;;      Totals:         0       0       0       0       0       0       0       0       0       0       0       0       
      +0       0       0
  8069 ;;Total ram usage:        0 bytes
  8070 ;; Hardware stack levels used:    1
  8071 ;; Hardware stack levels required when called:    3
  8072 ;; This function calls:
  8073 ;;		Absolute function
  8074 ;;		_Compare_ISR
  8075 ;; This function is called by:
  8076 ;;		_INTERRUPT_InterruptManager
  8077 ;; This function uses a non-reentrant model
  8078 ;;
  8079                           
  8080                           	psect	text67
  8081  001E18                     __ptext67:
  8082                           	opt stack 0
  8083  001E18                     _CCP1_CompareISR:
  8084                           	opt stack 20
  8085                           
  8086                           ; BSR set to: 14
  8087                           ;interrupt_handlers.c: 46: PIR6bits.CCP1IF = 0;
  8088                           
  8089                           ; BSR set to: 14
  8090                           ;incstack = 0
  8091  001E18  91CB               	bcf	203,0,b	;volatile
  8092                           
  8093                           ; BSR set to: 14
  8094                           ;interrupt_handlers.c: 47: if(CCP1_CompareInterruptHandler)
  8095  001E1A  0100               	movlb	0	; () banked
  8096  001E1C  5176               	movf	_CCP1_CompareInterruptHandler& (0+255),w,b
  8097  001E1E  1177               	iorwf	(_CCP1_CompareInterruptHandler+1)& (0+255),w,b
  8098  001E20  B4D8               	btfsc	status,2,c
  8099  001E22  0012               	return	
  8100                           
  8101                           ; BSR set to: 0
  8102                           ;interrupt_handlers.c: 48: {
  8103                           ;interrupt_handlers.c: 49: CCP1_CompareInterruptHandler();
  8104  001E24  0005               	push	
  8105  001E26  6EFA               	movwf	pclath,c
  8106  001E28  5176               	movf	_CCP1_CompareInterruptHandler& (0+255),w,b
  8107  001E2A  6EFD               	movwf	tosl,c
  8108  001E2C  5177               	movf	(_CCP1_CompareInterruptHandler+1)& (0+255),w,b
  8109  001E2E  6EFE               	movwf	tosh,c
  8110  001E30  6AFF               	clrf	tosu,c
  8111  001E32  50FA               	movf	pclath,w,c
  8112  001E34  0012               	return		;indir
  8113  001E36                     __end_of_CCP1_CompareISR:
  8114                           	opt stack 0
  8115                           tosu	equ	0xFFF
  8116                           tosh	equ	0xFFE
  8117                           tosl	equ	0xFFD
  8118                           pclatu	equ	0xFFB
  8119                           pclath	equ	0xFFA
  8120                           tblptru	equ	0xFF8
  8121                           tblptrh	equ	0xFF7
  8122                           tblptrl	equ	0xFF6
  8123                           tablat	equ	0xFF5
  8124                           prodl	equ	0xFF3
  8125                           intcon	equ	0xFF2
  8126                           postinc0	equ	0xFEE
  8127                           wreg	equ	0xFE8
  8128                           postinc2	equ	0xFDE
  8129                           postdec2	equ	0xFDD
  8130                           fsr2h	equ	0xFDA
  8131                           fsr2l	equ	0xFD9
  8132                           status	equ	0xFD8
  8133                           
  8134 ;; *************** function _Compare_ISR *****************
  8135 ;; Defined at:
  8136 ;;		line 100 in file "counting_ripples.c"
  8137 ;; Parameters:    Size  Location     Type
  8138 ;;		None
  8139 ;; Auto vars:     Size  Location     Type
  8140 ;;		None
  8141 ;; Return value:  Size  Location     Type
  8142 ;;                  1    wreg      void 
  8143 ;; Registers used:
  8144 ;;		wreg, status,2, cstack
  8145 ;; Tracked objects:
  8146 ;;		On entry : 3F/0
  8147 ;;		On exit  : 3F/0
  8148 ;;		Unchanged: 0/0
  8149 ;; Data sizes:     COMRAM   BANK0   BANK1   BANK2   BANK3   BANK4   BANK5   BANK6   BANK7   BANK8   BANK9  BANK10  BANK1
      +1  BANK12  BANK14
  8150 ;;      Params:         0       0       0       0       0       0       0       0       0       0       0       0       
      +0       0       0
  8151 ;;      Locals:         0       0       0       0       0       0       0       0       0       0       0       0       
      +0       0       0
  8152 ;;      Temps:          0       0       0       0       0       0       0       0       0       0       0       0       
      +0       0       0
  8153 ;;      Totals:         0       0       0       0       0       0       0       0       0       0       0       0       
      +0       0       0
  8154 ;;Total ram usage:        0 bytes
  8155 ;; Hardware stack levels used:    1
  8156 ;; Hardware stack levels required when called:    2
  8157 ;; This function calls:
  8158 ;;		_BrakingMechanism
  8159 ;;		_TMR1_StopTimer
  8160 ;;		_TMR4_StopTimer
  8161 ;; This function is called by:
  8162 ;;		_main
  8163 ;;		_CCP1_CompareISR
  8164 ;; This function uses a non-reentrant model
  8165 ;;
  8166                           
  8167                           	psect	text68
  8168  001F2A                     __ptext68:
  8169                           	opt stack 0
  8170  001F2A                     _Compare_ISR:
  8171                           	opt stack 20
  8172                           
  8173                           ; BSR set to: 0
  8174                           ;counting_ripples.c: 102: BrakingMechanism();
  8175                           
  8176                           ;incstack = 0
  8177  001F2A  ECD6  F00F         	call	_BrakingMechanism	;wreg free
  8178                           
  8179                           ; BSR set to: 15
  8180  001F2E  9E82               	bcf	3970,7,c	;volatile
  8181                           
  8182                           ; BSR set to: 15
  8183                           ;counting_ripples.c: 104: TMR4_StopTimer();
  8184  001F30  ECF6  F00F         	call	_TMR4_StopTimer	;wreg free
  8185                           
  8186                           ; BSR set to: 15
  8187                           ;counting_ripples.c: 105: TMR1_StopTimer();
  8188  001F34  ECFA  F00F         	call	_TMR1_StopTimer	;wreg free
  8189                           
  8190                           ; BSR set to: 15
  8191                           ;counting_ripples.c: 107: getCountDone = 1;
  8192  001F38  0E01               	movlw	1
  8193  001F3A  0100               	movlb	0	; () banked
  8194  001F3C  6F74               	movwf	_getCountDone& (0+255),b
  8195                           
  8196                           ; BSR set to: 0
  8197  001F3E  0C01               	retlw	1	;funcret
  8198  001F40                     __end_of_Compare_ISR:
  8199                           	opt stack 0
  8200                           tosu	equ	0xFFF
  8201                           tosh	equ	0xFFE
  8202                           tosl	equ	0xFFD
  8203                           pclatu	equ	0xFFB
  8204                           pclath	equ	0xFFA
  8205                           tblptru	equ	0xFF8
  8206                           tblptrh	equ	0xFF7
  8207                           tblptrl	equ	0xFF6
  8208                           tablat	equ	0xFF5
  8209                           prodl	equ	0xFF3
  8210                           intcon	equ	0xFF2
  8211                           postinc0	equ	0xFEE
  8212                           wreg	equ	0xFE8
  8213                           postinc2	equ	0xFDE
  8214                           postdec2	equ	0xFDD
  8215                           fsr2h	equ	0xFDA
  8216                           fsr2l	equ	0xFD9
  8217                           status	equ	0xFD8
  8218                           
  8219 ;; *************** function _TMR4_StopTimer *****************
  8220 ;; Defined at:
  8221 ;;		line 125 in file "mcc_generated_files/tmr4.c"
  8222 ;; Parameters:    Size  Location     Type
  8223 ;;		None
  8224 ;; Auto vars:     Size  Location     Type
  8225 ;;		None
  8226 ;; Return value:  Size  Location     Type
  8227 ;;                  1    wreg      void 
  8228 ;; Registers used:
  8229 ;;		cstack
  8230 ;; Tracked objects:
  8231 ;;		On entry : 3F/F
  8232 ;;		On exit  : 3F/F
  8233 ;;		Unchanged: 3E/0
  8234 ;; Data sizes:     COMRAM   BANK0   BANK1   BANK2   BANK3   BANK4   BANK5   BANK6   BANK7   BANK8   BANK9  BANK10  BANK1
      +1  BANK12  BANK14
  8235 ;;      Params:         0       0       0       0       0       0       0       0       0       0       0       0       
      +0       0       0
  8236 ;;      Locals:         0       0       0       0       0       0       0       0       0       0       0       0       
      +0       0       0
  8237 ;;      Temps:          0       0       0       0       0       0       0       0       0       0       0       0       
      +0       0       0
  8238 ;;      Totals:         0       0       0       0       0       0       0       0       0       0       0       0       
      +0       0       0
  8239 ;;Total ram usage:        0 bytes
  8240 ;; Hardware stack levels used:    1
  8241 ;; Hardware stack levels required when called:    1
  8242 ;; This function calls:
  8243 ;;		_TMR4_Stop
  8244 ;; This function is called by:
  8245 ;;		_Compare_ISR
  8246 ;;		_Stall_ISR
  8247 ;; This function uses a non-reentrant model
  8248 ;;
  8249                           
  8250                           	psect	text69
  8251  001FEC                     __ptext69:
  8252                           	opt stack 0
  8253  001FEC                     _TMR4_StopTimer:
  8254                           	opt stack 20
  8255                           
  8256                           ; BSR set to: 15
  8257                           ;tmr4.c: 127: TMR4_Stop();
  8258                           
  8259                           ; BSR set to: 0
  8260                           ;incstack = 0
  8261  001FEC  EFF8  F00F         	goto	_TMR4_Stop	;wreg free
  8262  001FF0                     __end_of_TMR4_StopTimer:
  8263                           	opt stack 0
  8264                           tosu	equ	0xFFF
  8265                           tosh	equ	0xFFE
  8266                           tosl	equ	0xFFD
  8267                           pclatu	equ	0xFFB
  8268                           pclath	equ	0xFFA
  8269                           tblptru	equ	0xFF8
  8270                           tblptrh	equ	0xFF7
  8271                           tblptrl	equ	0xFF6
  8272                           tablat	equ	0xFF5
  8273                           prodl	equ	0xFF3
  8274                           intcon	equ	0xFF2
  8275                           postinc0	equ	0xFEE
  8276                           wreg	equ	0xFE8
  8277                           postinc2	equ	0xFDE
  8278                           postdec2	equ	0xFDD
  8279                           fsr2h	equ	0xFDA
  8280                           fsr2l	equ	0xFD9
  8281                           status	equ	0xFD8
  8282                           
  8283 ;; *************** function _TMR4_Stop *****************
  8284 ;; Defined at:
  8285 ;;		line 119 in file "mcc_generated_files/tmr4.c"
  8286 ;; Parameters:    Size  Location     Type
  8287 ;;		None
  8288 ;; Auto vars:     Size  Location     Type
  8289 ;;		None
  8290 ;; Return value:  Size  Location     Type
  8291 ;;                  1    wreg      void 
  8292 ;; Registers used:
  8293 ;;		None
  8294 ;; Tracked objects:
  8295 ;;		On entry : 3F/F
  8296 ;;		On exit  : 3F/F
  8297 ;;		Unchanged: 3E/0
  8298 ;; Data sizes:     COMRAM   BANK0   BANK1   BANK2   BANK3   BANK4   BANK5   BANK6   BANK7   BANK8   BANK9  BANK10  BANK1
      +1  BANK12  BANK14
  8299 ;;      Params:         0       0       0       0       0       0       0       0       0       0       0       0       
      +0       0       0
  8300 ;;      Locals:         0       0       0       0       0       0       0       0       0       0       0       0       
      +0       0       0
  8301 ;;      Temps:          0       0       0       0       0       0       0       0       0       0       0       0       
      +0       0       0
  8302 ;;      Totals:         0       0       0       0       0       0       0       0       0       0       0       0       
      +0       0       0
  8303 ;;Total ram usage:        0 bytes
  8304 ;; Hardware stack levels used:    1
  8305 ;; This function calls:
  8306 ;;		Nothing
  8307 ;; This function is called by:
  8308 ;;		_TMR4_StopTimer
  8309 ;; This function uses a non-reentrant model
  8310 ;;
  8311                           
  8312                           	psect	text70
  8313  001FF0                     __ptext70:
  8314                           	opt stack 0
  8315  001FF0                     _TMR4_Stop:
  8316                           	opt stack 20
  8317                           
  8318                           ; BSR set to: 15
  8319                           ;tmr4.c: 122: T4CONbits.TMR4ON = 0;
  8320                           
  8321                           ; BSR set to: 15
  8322                           ;incstack = 0
  8323  001FF0  9EB6               	bcf	4022,7,c	;volatile
  8324                           
  8325                           ; BSR set to: 15
  8326  001FF2  0012               	return		;funcret
  8327  001FF4                     __end_of_TMR4_Stop:
  8328                           	opt stack 0
  8329                           tosu	equ	0xFFF
  8330                           tosh	equ	0xFFE
  8331                           tosl	equ	0xFFD
  8332                           pclatu	equ	0xFFB
  8333                           pclath	equ	0xFFA
  8334                           tblptru	equ	0xFF8
  8335                           tblptrh	equ	0xFF7
  8336                           tblptrl	equ	0xFF6
  8337                           tablat	equ	0xFF5
  8338                           prodl	equ	0xFF3
  8339                           intcon	equ	0xFF2
  8340                           postinc0	equ	0xFEE
  8341                           wreg	equ	0xFE8
  8342                           postinc2	equ	0xFDE
  8343                           postdec2	equ	0xFDD
  8344                           fsr2h	equ	0xFDA
  8345                           fsr2l	equ	0xFD9
  8346                           status	equ	0xFD8
  8347                           
  8348 ;; *************** function _TMR1_StopTimer *****************
  8349 ;; Defined at:
  8350 ;;		line 104 in file "mcc_generated_files/tmr1.c"
  8351 ;; Parameters:    Size  Location     Type
  8352 ;;		None
  8353 ;; Auto vars:     Size  Location     Type
  8354 ;;		None
  8355 ;; Return value:  Size  Location     Type
  8356 ;;                  1    wreg      void 
  8357 ;; Registers used:
  8358 ;;		None
  8359 ;; Tracked objects:
  8360 ;;		On entry : 3F/F
  8361 ;;		On exit  : 3F/F
  8362 ;;		Unchanged: 3E/0
  8363 ;; Data sizes:     COMRAM   BANK0   BANK1   BANK2   BANK3   BANK4   BANK5   BANK6   BANK7   BANK8   BANK9  BANK10  BANK1
      +1  BANK12  BANK14
  8364 ;;      Params:         0       0       0       0       0       0       0       0       0       0       0       0       
      +0       0       0
  8365 ;;      Locals:         0       0       0       0       0       0       0       0       0       0       0       0       
      +0       0       0
  8366 ;;      Temps:          0       0       0       0       0       0       0       0       0       0       0       0       
      +0       0       0
  8367 ;;      Totals:         0       0       0       0       0       0       0       0       0       0       0       0       
      +0       0       0
  8368 ;;Total ram usage:        0 bytes
  8369 ;; Hardware stack levels used:    1
  8370 ;; This function calls:
  8371 ;;		Nothing
  8372 ;; This function is called by:
  8373 ;;		_Compare_ISR
  8374 ;;		_Stall_ISR
  8375 ;; This function uses a non-reentrant model
  8376 ;;
  8377                           
  8378                           	psect	text71
  8379  001FF4                     __ptext71:
  8380                           	opt stack 0
  8381  001FF4                     _TMR1_StopTimer:
  8382                           	opt stack 21
  8383                           
  8384                           ; BSR set to: 15
  8385                           ;tmr1.c: 107: T1CONbits.TMR1ON = 0;
  8386                           
  8387                           ; BSR set to: 15
  8388                           ;incstack = 0
  8389  001FF4  90CE               	bcf	4046,0,c	;volatile
  8390                           
  8391                           ; BSR set to: 15
  8392  001FF6  0012               	return		;funcret
  8393  001FF8                     __end_of_TMR1_StopTimer:
  8394                           	opt stack 0
  8395                           tosu	equ	0xFFF
  8396                           tosh	equ	0xFFE
  8397                           tosl	equ	0xFFD
  8398                           pclatu	equ	0xFFB
  8399                           pclath	equ	0xFFA
  8400                           tblptru	equ	0xFF8
  8401                           tblptrh	equ	0xFF7
  8402                           tblptrl	equ	0xFF6
  8403                           tablat	equ	0xFF5
  8404                           prodl	equ	0xFF3
  8405                           intcon	equ	0xFF2
  8406                           postinc0	equ	0xFEE
  8407                           wreg	equ	0xFE8
  8408                           postinc2	equ	0xFDE
  8409                           postdec2	equ	0xFDD
  8410                           fsr2h	equ	0xFDA
  8411                           fsr2l	equ	0xFD9
  8412                           status	equ	0xFD8
  8413                           
  8414 ;; *************** function _BrakingMechanism *****************
  8415 ;; Defined at:
  8416 ;;		line 74 in file "motor_drive.c"
  8417 ;; Parameters:    Size  Location     Type
  8418 ;;		None
  8419 ;; Auto vars:     Size  Location     Type
  8420 ;;		None
  8421 ;; Return value:  Size  Location     Type
  8422 ;;                  1    wreg      void 
  8423 ;; Registers used:
  8424 ;;		wreg, status,2
  8425 ;; Tracked objects:
  8426 ;;		On entry : 3F/0
  8427 ;;		On exit  : 3F/F
  8428 ;;		Unchanged: 0/0
  8429 ;; Data sizes:     COMRAM   BANK0   BANK1   BANK2   BANK3   BANK4   BANK5   BANK6   BANK7   BANK8   BANK9  BANK10  BANK1
      +1  BANK12  BANK14
  8430 ;;      Params:         0       0       0       0       0       0       0       0       0       0       0       0       
      +0       0       0
  8431 ;;      Locals:         0       0       0       0       0       0       0       0       0       0       0       0       
      +0       0       0
  8432 ;;      Temps:          0       0       0       0       0       0       0       0       0       0       0       0       
      +0       0       0
  8433 ;;      Totals:         0       0       0       0       0       0       0       0       0       0       0       0       
      +0       0       0
  8434 ;;Total ram usage:        0 bytes
  8435 ;; Hardware stack levels used:    1
  8436 ;; This function calls:
  8437 ;;		Nothing
  8438 ;; This function is called by:
  8439 ;;		_Compare_ISR
  8440 ;;		_Stall_ISR
  8441 ;; This function uses a non-reentrant model
  8442 ;;
  8443                           
  8444                           	psect	text72
  8445  001FAC                     __ptext72:
  8446                           	opt stack 0
  8447  001FAC                     _BrakingMechanism:
  8448                           	opt stack 21
  8449                           
  8450                           ; BSR set to: 0
  8451                           ;motor_drive.c: 76: CWG1CON0bits.MODE = 0x0;
  8452                           
  8453                           ; BSR set to: 15
  8454                           ;incstack = 0
  8455  001FAC  0EF8               	movlw	-8
  8456  001FAE  010F               	movlb	15	; () banked
  8457  001FB0  173F               	andwf	63,f,b	;volatile
  8458                           
  8459                           ;motor_drive.c: 77: CWG1STR = 0xA0;
  8460  001FB2  0EA0               	movlw	160
  8461  001FB4  6F43               	movwf	67,b	;volatile
  8462                           
  8463                           ; BSR set to: 15
  8464  001FB6  0CA0               	retlw	160	;funcret
  8465  001FB8                     __end_of_BrakingMechanism:
  8466                           	opt stack 0
  8467                           tosu	equ	0xFFF
  8468                           tosh	equ	0xFFE
  8469                           tosl	equ	0xFFD
  8470                           pclatu	equ	0xFFB
  8471                           pclath	equ	0xFFA
  8472                           tblptru	equ	0xFF8
  8473                           tblptrh	equ	0xFF7
  8474                           tblptrl	equ	0xFF6
  8475                           tablat	equ	0xFF5
  8476                           prodl	equ	0xFF3
  8477                           intcon	equ	0xFF2
  8478                           postinc0	equ	0xFEE
  8479                           wreg	equ	0xFE8
  8480                           postinc2	equ	0xFDE
  8481                           postdec2	equ	0xFDD
  8482                           fsr2h	equ	0xFDA
  8483                           fsr2l	equ	0xFD9
  8484                           status	equ	0xFD8
  8485                           tosu	equ	0xFFF
  8486                           tosh	equ	0xFFE
  8487                           tosl	equ	0xFFD
  8488                           pclatu	equ	0xFFB
  8489                           pclath	equ	0xFFA
  8490                           tblptru	equ	0xFF8
  8491                           tblptrh	equ	0xFF7
  8492                           tblptrl	equ	0xFF6
  8493                           tablat	equ	0xFF5
  8494                           prodl	equ	0xFF3
  8495                           intcon	equ	0xFF2
  8496                           postinc0	equ	0xFEE
  8497                           wreg	equ	0xFE8
  8498                           postinc2	equ	0xFDE
  8499                           postdec2	equ	0xFDD
  8500                           fsr2h	equ	0xFDA
  8501                           fsr2l	equ	0xFD9
  8502                           status	equ	0xFD8
  8503                           
  8504                           	psect	text73
  8505  000000                     __ptext73:
  8506                           	opt stack 0
  8507                           tosu	equ	0xFFF
  8508                           tosh	equ	0xFFE
  8509                           tosl	equ	0xFFD
  8510                           pclatu	equ	0xFFB
  8511                           pclath	equ	0xFFA
  8512                           tblptru	equ	0xFF8
  8513                           tblptrh	equ	0xFF7
  8514                           tblptrl	equ	0xFF6
  8515                           tablat	equ	0xFF5
  8516                           prodl	equ	0xFF3
  8517                           intcon	equ	0xFF2
  8518                           postinc0	equ	0xFEE
  8519                           wreg	equ	0xFE8
  8520                           postinc2	equ	0xFDE
  8521                           postdec2	equ	0xFDD
  8522                           fsr2h	equ	0xFDA
  8523                           fsr2l	equ	0xFD9
  8524                           status	equ	0xFD8
  8525                           
  8526                           	psect	rparam
  8527  0000                     tosu	equ	0xFFF
  8528                           tosh	equ	0xFFE
  8529                           tosl	equ	0xFFD
  8530                           pclatu	equ	0xFFB
  8531                           pclath	equ	0xFFA
  8532                           tblptru	equ	0xFF8
  8533                           tblptrh	equ	0xFF7
  8534                           tblptrl	equ	0xFF6
  8535                           tablat	equ	0xFF5
  8536                           prodl	equ	0xFF3
  8537                           intcon	equ	0xFF2
  8538                           postinc0	equ	0xFEE
  8539                           wreg	equ	0xFE8
  8540                           postinc2	equ	0xFDE
  8541                           postdec2	equ	0xFDD
  8542                           fsr2h	equ	0xFDA
  8543                           fsr2l	equ	0xFD9
  8544                           status	equ	0xFD8
  8545                           
  8546                           	psect	temp
  8547  00005C                     btemp:
  8548                           	opt stack 0
  8549  00005C                     	ds	1
  8550  0000                     int$flags	set	btemp
  8551  0000                     wtemp6	set	btemp+1
  8552                           tosu	equ	0xFFF
  8553                           tosh	equ	0xFFE
  8554                           tosl	equ	0xFFD
  8555                           pclatu	equ	0xFFB
  8556                           pclath	equ	0xFFA
  8557                           tblptru	equ	0xFF8
  8558                           tblptrh	equ	0xFF7
  8559                           tblptrl	equ	0xFF6
  8560                           tablat	equ	0xFF5
  8561                           prodl	equ	0xFF3
  8562                           intcon	equ	0xFF2
  8563                           postinc0	equ	0xFEE
  8564                           wreg	equ	0xFE8
  8565                           postinc2	equ	0xFDE
  8566                           postdec2	equ	0xFDD
  8567                           fsr2h	equ	0xFDA
  8568                           fsr2l	equ	0xFD9
  8569                           status	equ	0xFD8
  8570                           tosu	equ	0xFFF
  8571                           tosh	equ	0xFFE
  8572                           tosl	equ	0xFFD
  8573                           pclatu	equ	0xFFB
  8574                           pclath	equ	0xFFA
  8575                           tblptru	equ	0xFF8
  8576                           tblptrh	equ	0xFF7
  8577                           tblptrl	equ	0xFF6
  8578                           tablat	equ	0xFF5
  8579                           prodl	equ	0xFF3
  8580                           intcon	equ	0xFF2
  8581                           postinc0	equ	0xFEE
  8582                           wreg	equ	0xFE8
  8583                           postinc2	equ	0xFDE
  8584                           postdec2	equ	0xFDD
  8585                           fsr2h	equ	0xFDA
  8586                           fsr2l	equ	0xFD9
  8587                           status	equ	0xFD8


Data Sizes:
    Strings     94
    Constant    10
    Data        2
    BSS         25
    Persistent  6
    Stack       0

Auto Spaces:
    Space          Size  Autos    Used
    COMRAM           94     88      91
    BANK0           160      5      35
    BANK1           256      0       0
    BANK2           256      0       0
    BANK3           256      0       0
    BANK4           256      0       0
    BANK5           256      0       0
    BANK6           256      0       0
    BANK7           256      0       0
    BANK8           256      0       0
    BANK9           256      0       0
    BANK10          256      0       0
    BANK11          256      0       0
    BANK12          256      0       0
    BANK14           31      0       0

Pointer List with Targets:

    frexp@eptr	PTR int  size(1) Largest target is 2
		 -> trunc@expon(COMRAM[2]), 

    printf@f	PTR const unsigned char  size(1) Largest target is 27
		 -> STR_5(CODE[23]), STR_4(CODE[24]), STR_3(CODE[24]), STR_2(CODE[20]), 
		 -> STR_1(CODE[27]), 

    printf@ap	PTR void [1] size(1) Largest target is 2
		 -> ?_printf(COMRAM[2]), 

    CCP1_CompareSetInterruptHandler@CompareInterruptHandler	PTR FTN()void  size(2) Largest target is 1
		 -> Compare_ISR(), 

    CCP1_CompareInterruptHandler	PTR FTN()void  size(2) Largest target is 1
		 -> Compare_ISR(), Absolute function(), 

    TMR1_GateInterruptHandler	PTR FTN()void  size(2) Largest target is 1
		 -> Absolute function(), 

    TMR4_SetInterruptHandler@InterruptHandler	PTR FTN()void  size(2) Largest target is 1
		 -> Stall_ISR(), TMR4_DefaultInterruptHandler(), 

    TMR4_InterruptHandler	PTR FTN()void  size(2) Largest target is 1
		 -> Stall_ISR(), Absolute function(), TMR4_DefaultInterruptHandler(), 


Critical Paths under _main in COMRAM

    _main->_GetAngleTurned
    _StallDetection->_TMR4_SetInterruptHandler
    _SYSTEM_Initialize->_TMR1_Initialize
    _TMR4_Initialize->_TMR4_SetInterruptHandler
    _ResumeMotor->_ExpectedRippleCountRemainingAngle
    _ResumeMotor->_ExpectedRippleCountToHome
    _ReadMotorPositionFromEEPROM->_printf
    _ReadInput->_ExpectedRippleCountRemainingAngle
    _ReversePosition->_printf
    _ForwardPosition->_printf
    _StorePosition->_DATAEE_WriteByte
    _GetAngleTurned->___ftdiv
    _printf->___lwmod
    _putch->_EUSART1_Write
    ___lwmod->___lwdiv
    ___ftdiv->_round
    _CheckHomeButton->_ExpectedRippleCountRemainingAngle
    _CheckHomeButton->_ExpectedRippleCountToHome
    _ExpectedRippleCountToHome->___ftmul
    _CheckEndButton->_ExpectedRippleCountRemainingAngle
    _CheckEndButton->_ExpectedRippleCountToEndPoint
    _StartCounting->_CCP1_SetCompareCount
    _TMR1_Reload->_TMR1_WriteTimer
    _ExpectedRippleCountToEndPoint->___ftmul
    _ExpectedRippleCountRemainingAngle->___ftmul
    _round->___ftsub
    _trunc->___altoft
    ___fttol->___ftadd
    ___altoft->___fttol
    ___ftsub->_trunc
    ___ftadd->___lwtoft
    ___lwtoft->___ftpack
    ___ftmul->_round

Critical Paths under _INTERRUPT_InterruptManager in COMRAM

    None.

Critical Paths under _main in BANK0

    _main->_ReadInput

Critical Paths under _INTERRUPT_InterruptManager in BANK0

    None.

Critical Paths under _main in BANK1

    None.

Critical Paths under _INTERRUPT_InterruptManager in BANK1

    None.

Critical Paths under _main in BANK2

    None.

Critical Paths under _INTERRUPT_InterruptManager in BANK2

    None.

Critical Paths under _main in BANK3

    None.

Critical Paths under _INTERRUPT_InterruptManager in BANK3

    None.

Critical Paths under _main in BANK4

    None.

Critical Paths under _INTERRUPT_InterruptManager in BANK4

    None.

Critical Paths under _main in BANK5

    None.

Critical Paths under _INTERRUPT_InterruptManager in BANK5

    None.

Critical Paths under _main in BANK6

    None.

Critical Paths under _INTERRUPT_InterruptManager in BANK6

    None.

Critical Paths under _main in BANK7

    None.

Critical Paths under _INTERRUPT_InterruptManager in BANK7

    None.

Critical Paths under _main in BANK8

    None.

Critical Paths under _INTERRUPT_InterruptManager in BANK8

    None.

Critical Paths under _main in BANK9

    None.

Critical Paths under _INTERRUPT_InterruptManager in BANK9

    None.

Critical Paths under _main in BANK10

    None.

Critical Paths under _INTERRUPT_InterruptManager in BANK10

    None.

Critical Paths under _main in BANK11

    None.

Critical Paths under _INTERRUPT_InterruptManager in BANK11

    None.

Critical Paths under _main in BANK12

    None.

Critical Paths under _INTERRUPT_InterruptManager in BANK12

    None.

Critical Paths under _main in BANK14

    None.

Critical Paths under _INTERRUPT_InterruptManager in BANK14

    None.

Call Graph Tables:

 ---------------------------------------------------------------------------------
 (Depth) Function   	        Calls       Base Space   Used Autos Params    Refs
 ---------------------------------------------------------------------------------
 (0) _main                                                 2     2      0  246727
                                              3 BANK0      2     2      0
    _CCP1_CompareSetInterruptHandler
           _CWG_AutoShutdownEventSet
                     _CheckEndButton
                 _CheckForwardButton
                    _CheckHomeButton
                 _CheckReverseButton
                     _GetAngleTurned
                      _MotorPosition
                          _ReadInput
        _ReadMotorPositionFromEEPROM
                        _ResumeMotor
                  _SYSTEM_Initialize
                     _StallDetection
 ---------------------------------------------------------------------------------
 (1) _StallDetection                                       0     0      0     174
           _TMR4_SetInterruptHandler
 ---------------------------------------------------------------------------------
 (1) _SYSTEM_Initialize                                    0     0      0     174
                    _ADCC_Initialize
                    _CCP1_Initialize
                    _CLC1_Initialize
                     _CWG_Initialize
                 _EUSART1_Initialize
               _INTERRUPT_Initialize
              _OSCILLATOR_Initialize
             _PIN_MANAGER_Initialize
                     _PMD_Initialize
                    _PWM2_Initialize
                    _TMR1_Initialize
                    _TMR2_Initialize
                    _TMR4_Initialize
 ---------------------------------------------------------------------------------
 (2) _TMR4_Initialize                                      0     0      0     174
           _TMR4_SetInterruptHandler
 ---------------------------------------------------------------------------------
 (2) _TMR4_SetInterruptHandler                             2     0      2     174
                                              2 COMRAM     2     0      2
 ---------------------------------------------------------------------------------
 (2) _TMR2_Initialize                                      0     0      0       0
 ---------------------------------------------------------------------------------
 (2) _TMR1_Initialize                                      2     2      0       0
                                              2 COMRAM     2     2      0
 ---------------------------------------------------------------------------------
 (2) _PWM2_Initialize                                      0     0      0       0
 ---------------------------------------------------------------------------------
 (2) _PMD_Initialize                                       0     0      0       0
 ---------------------------------------------------------------------------------
 (2) _PIN_MANAGER_Initialize                               0     0      0       0
 ---------------------------------------------------------------------------------
 (2) _OSCILLATOR_Initialize                                0     0      0       0
 ---------------------------------------------------------------------------------
 (2) _INTERRUPT_Initialize                                 0     0      0       0
 ---------------------------------------------------------------------------------
 (2) _EUSART1_Initialize                                   0     0      0       0
 ---------------------------------------------------------------------------------
 (2) _CWG_Initialize                                       0     0      0       0
 ---------------------------------------------------------------------------------
 (2) _CLC1_Initialize                                      0     0      0       0
 ---------------------------------------------------------------------------------
 (2) _CCP1_Initialize                                      0     0      0       0
 ---------------------------------------------------------------------------------
 (2) _ADCC_Initialize                                      0     0      0       0
 ---------------------------------------------------------------------------------
 (1) _ResumeMotor                                          0     0      0   55068
                   _CompareLoadValue
  _ExpectedRippleCountRemainingAngle
          _ExpectedRippleCountToHome
                        _Reverse_Dir
 ---------------------------------------------------------------------------------
 (1) _ReadMotorPositionFromEEPROM                          7     7      0    1570
                                             24 COMRAM     7     7      0
                    _DATAEE_ReadByte
                             _printf
 ---------------------------------------------------------------------------------
 (2) _DATAEE_ReadByte                                      1     1      0      22
                                              2 COMRAM     1     1      0
 ---------------------------------------------------------------------------------
 (1) _ReadInput                                            3     3      0   49698
                                              0 BANK0      3     3      0
                   _CompareLoadValue
  _ExpectedRippleCountRemainingAngle
                            ___ftmul
                            ___fttol
                           ___lwtoft
                              _round
 ---------------------------------------------------------------------------------
 (1) _MotorPosition                                        0     0      0    3400
                    _ForwardPosition
                    _ReversePosition
 ---------------------------------------------------------------------------------
 (2) _ReversePosition                                      0     0      0    1700
                      _StorePosition
                             _printf
 ---------------------------------------------------------------------------------
 (2) _ForwardPosition                                      0     0      0    1700
                      _StorePosition
                             _printf
 ---------------------------------------------------------------------------------
 (3) _StorePosition                                        2     2      0     265
                                              5 COMRAM     2     2      0
                   _DATAEE_WriteByte
 ---------------------------------------------------------------------------------
 (4) _DATAEE_WriteByte                                     3     2      1     219
                                              2 COMRAM     3     2      1
 ---------------------------------------------------------------------------------
 (1) _GetAngleTurned                                       3     3      0   25745
                                             85 COMRAM     3     3      0
                     _TMR1_ReadTimer
                            ___ftdiv
                            ___fttol
                           ___lwtoft
                             _printf
                              _round
 ---------------------------------------------------------------------------------
 (2) _printf                                              19    16      3    1435
                                             14 COMRAM    10     7      3
                            ___lwdiv
                            ___lwmod
                              _putch
 ---------------------------------------------------------------------------------
 (3) _putch                                                1     1      0      44
                                              3 COMRAM     1     1      0
                      _EUSART1_Write
 ---------------------------------------------------------------------------------
 (4) _EUSART1_Write                                        1     1      0      22
                                              2 COMRAM     1     1      0
 ---------------------------------------------------------------------------------
 (3) ___lwmod                                              5     1      4     311
                                              9 COMRAM     5     1      4
                            ___lwdiv (ARG)
 ---------------------------------------------------------------------------------
 (3) ___lwdiv                                              7     3      4     314
                                              2 COMRAM     7     3      4
 ---------------------------------------------------------------------------------
 (2) ___ftdiv                                             15     9      6    3699
                                             70 COMRAM    15     9      6
                           ___ftpack
                            ___fttol (ARG)
                           ___lwtoft (ARG)
                              _round (ARG)
 ---------------------------------------------------------------------------------
 (2) _TMR1_ReadTimer                                       8     6      2      69
                                              2 COMRAM     8     6      2
 ---------------------------------------------------------------------------------
 (1) _CheckReverseButton                                   2     2      0     332
                                              6 COMRAM     2     2      0
                        _Reverse_Dir
 ---------------------------------------------------------------------------------
 (1) _CheckHomeButton                                      2     2      0   55068
                                              0 BANK0      2     2      0
                   _CompareLoadValue
  _ExpectedRippleCountRemainingAngle
          _ExpectedRippleCountToHome
                        _Reverse_Dir
 ---------------------------------------------------------------------------------
 (2) _Reverse_Dir                                          0     0      0     332
                      _StartCounting
 ---------------------------------------------------------------------------------
 (2) _ExpectedRippleCountToHome                            3     3      0   29887
                                             85 COMRAM     3     3      0
                            ___ftadd
                            ___ftmul
                            ___fttol
                           ___lwtoft
                              _round
 ---------------------------------------------------------------------------------
 (1) _CheckForwardButton                                   2     2      0     332
                                              6 COMRAM     2     2      0
                        _Forward_Dir
 ---------------------------------------------------------------------------------
 (1) _CheckEndButton                                       2     2      0   55068
                                              0 BANK0      2     2      0
                   _CompareLoadValue
  _ExpectedRippleCountRemainingAngle
      _ExpectedRippleCountToEndPoint
                        _Forward_Dir
 ---------------------------------------------------------------------------------
 (2) _Forward_Dir                                          0     0      0     332
                      _StartCounting
 ---------------------------------------------------------------------------------
 (3) _StartCounting                                        0     0      0     332
               _CCP1_SetCompareCount
                        _TMR1_Reload
                    _TMR1_StartTimer
                 _TMR4_Period8BitSet
 ---------------------------------------------------------------------------------
 (4) _TMR4_Period8BitSet                                   1     1      0      22
                                              2 COMRAM     1     1      0
 ---------------------------------------------------------------------------------
 (4) _TMR1_StartTimer                                      0     0      0       0
 ---------------------------------------------------------------------------------
 (4) _TMR1_Reload                                          0     0      0     166
                    _TMR1_WriteTimer
 ---------------------------------------------------------------------------------
 (5) _TMR1_WriteTimer                                      2     0      2     166
                                              2 COMRAM     2     0      2
 ---------------------------------------------------------------------------------
 (4) _CCP1_SetCompareCount                                 4     2      2     144
                                              2 COMRAM     4     2      2
 ---------------------------------------------------------------------------------
 (2) _ExpectedRippleCountToEndPoint                        3     3      0   29887
                                             85 COMRAM     3     3      0
                            ___ftadd
                            ___ftmul
                            ___fttol
                           ___lwtoft
                              _round
 ---------------------------------------------------------------------------------
 (2) _ExpectedRippleCountRemainingAngle                    3     3      0   24849
                                             85 COMRAM     3     3      0
                            ___ftmul
                            ___fttol
                           ___lwtoft
                              _round
 ---------------------------------------------------------------------------------
 (3) _round                                                6     3      3   16163
                                             64 COMRAM     6     3      3
                            ___ftadd
                            ___ftsub
                              _trunc
 ---------------------------------------------------------------------------------
 (4) _trunc                                                8     5      3    5060
                                             50 COMRAM     8     5      3
                           ___altoft
                            ___fttol
                              _frexp
 ---------------------------------------------------------------------------------
 (5) _frexp                                                6     2      4     478
                                              2 COMRAM     6     2      4
 ---------------------------------------------------------------------------------
 (5) ___fttol                                             15    11      4     911
                                             25 COMRAM    15    11      4
                            ___ftadd (ARG)
                           ___ftpack (ARG)
                           ___lwtoft (ARG)
 ---------------------------------------------------------------------------------
 (5) ___altoft                                            10     6      4    3247
                                             40 COMRAM    10     6      4
                           ___ftpack
                            ___fttol (ARG)
 ---------------------------------------------------------------------------------
 (4) ___ftsub                                              6     0      6    5454
                                             58 COMRAM     6     0      6
                            ___ftadd
                              _trunc (ARG)
 ---------------------------------------------------------------------------------
 (5) ___ftadd                                             12     6      6    5038
                                             13 COMRAM    12     6      6
                           ___ftpack
                           ___ftpack (ARG)
                           ___lwtoft (ARG)
 ---------------------------------------------------------------------------------
 (3) ___lwtoft                                             3     0      3    3434
                                             10 COMRAM     3     0      3
                           ___ftpack
 ---------------------------------------------------------------------------------
 (3) ___ftmul                                             15     9      6    4307
                                             70 COMRAM    15     9      6
                            ___ftadd (ARG)
                           ___ftpack
                            ___fttol (ARG)
                           ___lwtoft (ARG)
                              _round (ARG)
 ---------------------------------------------------------------------------------
 (6) ___ftpack                                             8     3      5    2953
                                              2 COMRAM     8     3      5
 ---------------------------------------------------------------------------------
 (2) _CompareLoadValue                                     6     6      0       0
                                              2 COMRAM     6     6      0
 ---------------------------------------------------------------------------------
 (1) _CWG_AutoShutdownEventSet                             0     0      0       0
 ---------------------------------------------------------------------------------
 (1) _CCP1_CompareSetInterruptHandler                      2     0      2      98
                                              2 COMRAM     2     0      2
 ---------------------------------------------------------------------------------
 Estimated maximum stack depth 6
 ---------------------------------------------------------------------------------
 (Depth) Function   	        Calls       Base Space   Used Autos Params    Refs
 ---------------------------------------------------------------------------------
 (7) _INTERRUPT_InterruptManager                           2     2      0       0
                                              0 COMRAM     2     2      0
                    _CCP1_CompareISR
                      _TMR1_GATE_ISR
                           _TMR4_ISR
 ---------------------------------------------------------------------------------
 (8) _TMR4_ISR                                             0     0      0       0
                   Absolute function *
                          _Stall_ISR *
       _TMR4_DefaultInterruptHandler *
 ---------------------------------------------------------------------------------
 (9) _TMR4_DefaultInterruptHandler                         0     0      0       0
 ---------------------------------------------------------------------------------
 (9) _Stall_ISR                                            0     0      0       0
                   _BrakingMechanism
                     _TMR1_StopTimer
                     _TMR4_StopTimer
 ---------------------------------------------------------------------------------
 (8) _TMR1_GATE_ISR                                        0     0      0       0
 ---------------------------------------------------------------------------------
 (8) _CCP1_CompareISR                                      0     0      0       0
                   Absolute function *
                        _Compare_ISR *
 ---------------------------------------------------------------------------------
 (9) _Compare_ISR                                          0     0      0       0
                   _BrakingMechanism
                     _TMR1_StopTimer
                     _TMR4_StopTimer
 ---------------------------------------------------------------------------------
 (10) _TMR4_StopTimer                                      0     0      0       0
                          _TMR4_Stop
 ---------------------------------------------------------------------------------
 (11) _TMR4_Stop                                           0     0      0       0
 ---------------------------------------------------------------------------------
 (10) _TMR1_StopTimer                                      0     0      0       0
 ---------------------------------------------------------------------------------
 (10) _BrakingMechanism                                    0     0      0       0
 ---------------------------------------------------------------------------------
 (9) Absolute function(Fake)                               0     0      0       0
 ---------------------------------------------------------------------------------
 Estimated maximum stack depth 11
 ---------------------------------------------------------------------------------

 Call Graph Graphs:

 _main (ROOT)
   _CCP1_CompareSetInterruptHandler
   _CWG_AutoShutdownEventSet
   _CheckEndButton
     _CompareLoadValue
     _ExpectedRippleCountRemainingAngle
       ___ftmul
         ___ftadd (ARG)
           ___ftpack
           ___ftpack (ARG)
           ___lwtoft (ARG)
             ___ftpack
         ___ftpack (ARG)
         ___fttol (ARG)
           ___ftadd (ARG)
             ___ftpack
             ___ftpack (ARG)
             ___lwtoft (ARG)
               ___ftpack
           ___ftpack (ARG)
           ___lwtoft (ARG)
             ___ftpack
         ___lwtoft (ARG)
           ___ftpack
         _round (ARG)
           ___ftadd
             ___ftpack
             ___ftpack (ARG)
             ___lwtoft (ARG)
               ___ftpack
           ___ftsub
             ___ftadd
               ___ftpack
               ___ftpack (ARG)
               ___lwtoft (ARG)
                 ___ftpack
             _trunc (ARG)
               ___altoft
                 ___ftpack
                 ___fttol (ARG)
                   ___ftadd (ARG)
                     ___ftpack
                     ___ftpack (ARG)
                     ___lwtoft (ARG)
                       ___ftpack
                   ___ftpack (ARG)
                   ___lwtoft (ARG)
                     ___ftpack
               ___fttol
                 ___ftadd (ARG)
                   ___ftpack
                   ___ftpack (ARG)
                   ___lwtoft (ARG)
                     ___ftpack
                 ___ftpack (ARG)
                 ___lwtoft (ARG)
                   ___ftpack
               _frexp
           _trunc
             ___altoft
               ___ftpack
               ___fttol (ARG)
                 ___ftadd (ARG)
                   ___ftpack
                   ___ftpack (ARG)
                   ___lwtoft (ARG)
                     ___ftpack
                 ___ftpack (ARG)
                 ___lwtoft (ARG)
                   ___ftpack
             ___fttol
               ___ftadd (ARG)
                 ___ftpack
                 ___ftpack (ARG)
                 ___lwtoft (ARG)
                   ___ftpack
               ___ftpack (ARG)
               ___lwtoft (ARG)
                 ___ftpack
             _frexp
       ___fttol
         ___ftadd (ARG)
           ___ftpack
           ___ftpack (ARG)
           ___lwtoft (ARG)
             ___ftpack
         ___ftpack (ARG)
         ___lwtoft (ARG)
           ___ftpack
       ___lwtoft
         ___ftpack
       _round
         ___ftadd
           ___ftpack
           ___ftpack (ARG)
           ___lwtoft (ARG)
             ___ftpack
         ___ftsub
           ___ftadd
             ___ftpack
             ___ftpack (ARG)
             ___lwtoft (ARG)
               ___ftpack
           _trunc (ARG)
             ___altoft
               ___ftpack
               ___fttol (ARG)
                 ___ftadd (ARG)
                   ___ftpack
                   ___ftpack (ARG)
                   ___lwtoft (ARG)
                     ___ftpack
                 ___ftpack (ARG)
                 ___lwtoft (ARG)
                   ___ftpack
             ___fttol
               ___ftadd (ARG)
                 ___ftpack
                 ___ftpack (ARG)
                 ___lwtoft (ARG)
                   ___ftpack
               ___ftpack (ARG)
               ___lwtoft (ARG)
                 ___ftpack
             _frexp
         _trunc
           ___altoft
             ___ftpack
             ___fttol (ARG)
               ___ftadd (ARG)
                 ___ftpack
                 ___ftpack (ARG)
                 ___lwtoft (ARG)
                   ___ftpack
               ___ftpack (ARG)
               ___lwtoft (ARG)
                 ___ftpack
           ___fttol
             ___ftadd (ARG)
               ___ftpack
               ___ftpack (ARG)
               ___lwtoft (ARG)
                 ___ftpack
             ___ftpack (ARG)
             ___lwtoft (ARG)
               ___ftpack
           _frexp
     _ExpectedRippleCountToEndPoint
       ___ftadd
         ___ftpack
         ___ftpack (ARG)
         ___lwtoft (ARG)
           ___ftpack
       ___ftmul
         ___ftadd (ARG)
           ___ftpack
           ___ftpack (ARG)
           ___lwtoft (ARG)
             ___ftpack
         ___ftpack (ARG)
         ___fttol (ARG)
           ___ftadd (ARG)
             ___ftpack
             ___ftpack (ARG)
             ___lwtoft (ARG)
               ___ftpack
           ___ftpack (ARG)
           ___lwtoft (ARG)
             ___ftpack
         ___lwtoft (ARG)
           ___ftpack
         _round (ARG)
           ___ftadd
             ___ftpack
             ___ftpack (ARG)
             ___lwtoft (ARG)
               ___ftpack
           ___ftsub
             ___ftadd
               ___ftpack
               ___ftpack (ARG)
               ___lwtoft (ARG)
                 ___ftpack
             _trunc (ARG)
               ___altoft
                 ___ftpack
                 ___fttol (ARG)
                   ___ftadd (ARG)
                     ___ftpack
                     ___ftpack (ARG)
                     ___lwtoft (ARG)
                       ___ftpack
                   ___ftpack (ARG)
                   ___lwtoft (ARG)
                     ___ftpack
               ___fttol
                 ___ftadd (ARG)
                   ___ftpack
                   ___ftpack (ARG)
                   ___lwtoft (ARG)
                     ___ftpack
                 ___ftpack (ARG)
                 ___lwtoft (ARG)
                   ___ftpack
               _frexp
           _trunc
             ___altoft
               ___ftpack
               ___fttol (ARG)
                 ___ftadd (ARG)
                   ___ftpack
                   ___ftpack (ARG)
                   ___lwtoft (ARG)
                     ___ftpack
                 ___ftpack (ARG)
                 ___lwtoft (ARG)
                   ___ftpack
             ___fttol
               ___ftadd (ARG)
                 ___ftpack
                 ___ftpack (ARG)
                 ___lwtoft (ARG)
                   ___ftpack
               ___ftpack (ARG)
               ___lwtoft (ARG)
                 ___ftpack
             _frexp
       ___fttol
         ___ftadd (ARG)
           ___ftpack
           ___ftpack (ARG)
           ___lwtoft (ARG)
             ___ftpack
         ___ftpack (ARG)
         ___lwtoft (ARG)
           ___ftpack
       ___lwtoft
         ___ftpack
       _round
         ___ftadd
           ___ftpack
           ___ftpack (ARG)
           ___lwtoft (ARG)
             ___ftpack
         ___ftsub
           ___ftadd
             ___ftpack
             ___ftpack (ARG)
             ___lwtoft (ARG)
               ___ftpack
           _trunc (ARG)
             ___altoft
               ___ftpack
               ___fttol (ARG)
                 ___ftadd (ARG)
                   ___ftpack
                   ___ftpack (ARG)
                   ___lwtoft (ARG)
                     ___ftpack
                 ___ftpack (ARG)
                 ___lwtoft (ARG)
                   ___ftpack
             ___fttol
               ___ftadd (ARG)
                 ___ftpack
                 ___ftpack (ARG)
                 ___lwtoft (ARG)
                   ___ftpack
               ___ftpack (ARG)
               ___lwtoft (ARG)
                 ___ftpack
             _frexp
         _trunc
           ___altoft
             ___ftpack
             ___fttol (ARG)
               ___ftadd (ARG)
                 ___ftpack
                 ___ftpack (ARG)
                 ___lwtoft (ARG)
                   ___ftpack
               ___ftpack (ARG)
               ___lwtoft (ARG)
                 ___ftpack
           ___fttol
             ___ftadd (ARG)
               ___ftpack
               ___ftpack (ARG)
               ___lwtoft (ARG)
                 ___ftpack
             ___ftpack (ARG)
             ___lwtoft (ARG)
               ___ftpack
           _frexp
     _Forward_Dir
       _StartCounting
         _CCP1_SetCompareCount
         _TMR1_Reload
           _TMR1_WriteTimer
         _TMR1_StartTimer
         _TMR4_Period8BitSet
   _CheckForwardButton
     _Forward_Dir
       _StartCounting
         _CCP1_SetCompareCount
         _TMR1_Reload
           _TMR1_WriteTimer
         _TMR1_StartTimer
         _TMR4_Period8BitSet
   _CheckHomeButton
     _CompareLoadValue
     _ExpectedRippleCountRemainingAngle
       ___ftmul
         ___ftadd (ARG)
           ___ftpack
           ___ftpack (ARG)
           ___lwtoft (ARG)
             ___ftpack
         ___ftpack (ARG)
         ___fttol (ARG)
           ___ftadd (ARG)
             ___ftpack
             ___ftpack (ARG)
             ___lwtoft (ARG)
               ___ftpack
           ___ftpack (ARG)
           ___lwtoft (ARG)
             ___ftpack
         ___lwtoft (ARG)
           ___ftpack
         _round (ARG)
           ___ftadd
             ___ftpack
             ___ftpack (ARG)
             ___lwtoft (ARG)
               ___ftpack
           ___ftsub
             ___ftadd
               ___ftpack
               ___ftpack (ARG)
               ___lwtoft (ARG)
                 ___ftpack
             _trunc (ARG)
               ___altoft
                 ___ftpack
                 ___fttol (ARG)
                   ___ftadd (ARG)
                     ___ftpack
                     ___ftpack (ARG)
                     ___lwtoft (ARG)
                       ___ftpack
                   ___ftpack (ARG)
                   ___lwtoft (ARG)
                     ___ftpack
               ___fttol
                 ___ftadd (ARG)
                   ___ftpack
                   ___ftpack (ARG)
                   ___lwtoft (ARG)
                     ___ftpack
                 ___ftpack (ARG)
                 ___lwtoft (ARG)
                   ___ftpack
               _frexp
           _trunc
             ___altoft
               ___ftpack
               ___fttol (ARG)
                 ___ftadd (ARG)
                   ___ftpack
                   ___ftpack (ARG)
                   ___lwtoft (ARG)
                     ___ftpack
                 ___ftpack (ARG)
                 ___lwtoft (ARG)
                   ___ftpack
             ___fttol
               ___ftadd (ARG)
                 ___ftpack
                 ___ftpack (ARG)
                 ___lwtoft (ARG)
                   ___ftpack
               ___ftpack (ARG)
               ___lwtoft (ARG)
                 ___ftpack
             _frexp
       ___fttol
         ___ftadd (ARG)
           ___ftpack
           ___ftpack (ARG)
           ___lwtoft (ARG)
             ___ftpack
         ___ftpack (ARG)
         ___lwtoft (ARG)
           ___ftpack
       ___lwtoft
         ___ftpack
       _round
         ___ftadd
           ___ftpack
           ___ftpack (ARG)
           ___lwtoft (ARG)
             ___ftpack
         ___ftsub
           ___ftadd
             ___ftpack
             ___ftpack (ARG)
             ___lwtoft (ARG)
               ___ftpack
           _trunc (ARG)
             ___altoft
               ___ftpack
               ___fttol (ARG)
                 ___ftadd (ARG)
                   ___ftpack
                   ___ftpack (ARG)
                   ___lwtoft (ARG)
                     ___ftpack
                 ___ftpack (ARG)
                 ___lwtoft (ARG)
                   ___ftpack
             ___fttol
               ___ftadd (ARG)
                 ___ftpack
                 ___ftpack (ARG)
                 ___lwtoft (ARG)
                   ___ftpack
               ___ftpack (ARG)
               ___lwtoft (ARG)
                 ___ftpack
             _frexp
         _trunc
           ___altoft
             ___ftpack
             ___fttol (ARG)
               ___ftadd (ARG)
                 ___ftpack
                 ___ftpack (ARG)
                 ___lwtoft (ARG)
                   ___ftpack
               ___ftpack (ARG)
               ___lwtoft (ARG)
                 ___ftpack
           ___fttol
             ___ftadd (ARG)
               ___ftpack
               ___ftpack (ARG)
               ___lwtoft (ARG)
                 ___ftpack
             ___ftpack (ARG)
             ___lwtoft (ARG)
               ___ftpack
           _frexp
     _ExpectedRippleCountToHome
       ___ftadd
         ___ftpack
         ___ftpack (ARG)
         ___lwtoft (ARG)
           ___ftpack
       ___ftmul
         ___ftadd (ARG)
           ___ftpack
           ___ftpack (ARG)
           ___lwtoft (ARG)
             ___ftpack
         ___ftpack (ARG)
         ___fttol (ARG)
           ___ftadd (ARG)
             ___ftpack
             ___ftpack (ARG)
             ___lwtoft (ARG)
               ___ftpack
           ___ftpack (ARG)
           ___lwtoft (ARG)
             ___ftpack
         ___lwtoft (ARG)
           ___ftpack
         _round (ARG)
           ___ftadd
             ___ftpack
             ___ftpack (ARG)
             ___lwtoft (ARG)
               ___ftpack
           ___ftsub
             ___ftadd
               ___ftpack
               ___ftpack (ARG)
               ___lwtoft (ARG)
                 ___ftpack
             _trunc (ARG)
               ___altoft
                 ___ftpack
                 ___fttol (ARG)
                   ___ftadd (ARG)
                     ___ftpack
                     ___ftpack (ARG)
                     ___lwtoft (ARG)
                       ___ftpack
                   ___ftpack (ARG)
                   ___lwtoft (ARG)
                     ___ftpack
               ___fttol
                 ___ftadd (ARG)
                   ___ftpack
                   ___ftpack (ARG)
                   ___lwtoft (ARG)
                     ___ftpack
                 ___ftpack (ARG)
                 ___lwtoft (ARG)
                   ___ftpack
               _frexp
           _trunc
             ___altoft
               ___ftpack
               ___fttol (ARG)
                 ___ftadd (ARG)
                   ___ftpack
                   ___ftpack (ARG)
                   ___lwtoft (ARG)
                     ___ftpack
                 ___ftpack (ARG)
                 ___lwtoft (ARG)
                   ___ftpack
             ___fttol
               ___ftadd (ARG)
                 ___ftpack
                 ___ftpack (ARG)
                 ___lwtoft (ARG)
                   ___ftpack
               ___ftpack (ARG)
               ___lwtoft (ARG)
                 ___ftpack
             _frexp
       ___fttol
         ___ftadd (ARG)
           ___ftpack
           ___ftpack (ARG)
           ___lwtoft (ARG)
             ___ftpack
         ___ftpack (ARG)
         ___lwtoft (ARG)
           ___ftpack
       ___lwtoft
         ___ftpack
       _round
         ___ftadd
           ___ftpack
           ___ftpack (ARG)
           ___lwtoft (ARG)
             ___ftpack
         ___ftsub
           ___ftadd
             ___ftpack
             ___ftpack (ARG)
             ___lwtoft (ARG)
               ___ftpack
           _trunc (ARG)
             ___altoft
               ___ftpack
               ___fttol (ARG)
                 ___ftadd (ARG)
                   ___ftpack
                   ___ftpack (ARG)
                   ___lwtoft (ARG)
                     ___ftpack
                 ___ftpack (ARG)
                 ___lwtoft (ARG)
                   ___ftpack
             ___fttol
               ___ftadd (ARG)
                 ___ftpack
                 ___ftpack (ARG)
                 ___lwtoft (ARG)
                   ___ftpack
               ___ftpack (ARG)
               ___lwtoft (ARG)
                 ___ftpack
             _frexp
         _trunc
           ___altoft
             ___ftpack
             ___fttol (ARG)
               ___ftadd (ARG)
                 ___ftpack
                 ___ftpack (ARG)
                 ___lwtoft (ARG)
                   ___ftpack
               ___ftpack (ARG)
               ___lwtoft (ARG)
                 ___ftpack
           ___fttol
             ___ftadd (ARG)
               ___ftpack
               ___ftpack (ARG)
               ___lwtoft (ARG)
                 ___ftpack
             ___ftpack (ARG)
             ___lwtoft (ARG)
               ___ftpack
           _frexp
     _Reverse_Dir
       _StartCounting
         _CCP1_SetCompareCount
         _TMR1_Reload
           _TMR1_WriteTimer
         _TMR1_StartTimer
         _TMR4_Period8BitSet
   _CheckReverseButton
     _Reverse_Dir
       _StartCounting
         _CCP1_SetCompareCount
         _TMR1_Reload
           _TMR1_WriteTimer
         _TMR1_StartTimer
         _TMR4_Period8BitSet
   _GetAngleTurned
     _TMR1_ReadTimer
     ___ftdiv
       ___ftpack
       ___fttol (ARG)
         ___ftadd (ARG)
           ___ftpack
           ___ftpack (ARG)
           ___lwtoft (ARG)
             ___ftpack
         ___ftpack (ARG)
         ___lwtoft (ARG)
           ___ftpack
       ___lwtoft (ARG)
         ___ftpack
       _round (ARG)
         ___ftadd
           ___ftpack
           ___ftpack (ARG)
           ___lwtoft (ARG)
             ___ftpack
         ___ftsub
           ___ftadd
             ___ftpack
             ___ftpack (ARG)
             ___lwtoft (ARG)
               ___ftpack
           _trunc (ARG)
             ___altoft
               ___ftpack
               ___fttol (ARG)
                 ___ftadd (ARG)
                   ___ftpack
                   ___ftpack (ARG)
                   ___lwtoft (ARG)
                     ___ftpack
                 ___ftpack (ARG)
                 ___lwtoft (ARG)
                   ___ftpack
             ___fttol
               ___ftadd (ARG)
                 ___ftpack
                 ___ftpack (ARG)
                 ___lwtoft (ARG)
                   ___ftpack
               ___ftpack (ARG)
               ___lwtoft (ARG)
                 ___ftpack
             _frexp
         _trunc
           ___altoft
             ___ftpack
             ___fttol (ARG)
               ___ftadd (ARG)
                 ___ftpack
                 ___ftpack (ARG)
                 ___lwtoft (ARG)
                   ___ftpack
               ___ftpack (ARG)
               ___lwtoft (ARG)
                 ___ftpack
           ___fttol
             ___ftadd (ARG)
               ___ftpack
               ___ftpack (ARG)
               ___lwtoft (ARG)
                 ___ftpack
             ___ftpack (ARG)
             ___lwtoft (ARG)
               ___ftpack
           _frexp
     ___fttol
       ___ftadd (ARG)
         ___ftpack
         ___ftpack (ARG)
         ___lwtoft (ARG)
           ___ftpack
       ___ftpack (ARG)
       ___lwtoft (ARG)
         ___ftpack
     ___lwtoft
       ___ftpack
     _printf
       ___lwdiv
       ___lwmod
         ___lwdiv (ARG)
       _putch
         _EUSART1_Write
     _round
       ___ftadd
         ___ftpack
         ___ftpack (ARG)
         ___lwtoft (ARG)
           ___ftpack
       ___ftsub
         ___ftadd
           ___ftpack
           ___ftpack (ARG)
           ___lwtoft (ARG)
             ___ftpack
         _trunc (ARG)
           ___altoft
             ___ftpack
             ___fttol (ARG)
               ___ftadd (ARG)
                 ___ftpack
                 ___ftpack (ARG)
                 ___lwtoft (ARG)
                   ___ftpack
               ___ftpack (ARG)
               ___lwtoft (ARG)
                 ___ftpack
           ___fttol
             ___ftadd (ARG)
               ___ftpack
               ___ftpack (ARG)
               ___lwtoft (ARG)
                 ___ftpack
             ___ftpack (ARG)
             ___lwtoft (ARG)
               ___ftpack
           _frexp
       _trunc
         ___altoft
           ___ftpack
           ___fttol (ARG)
             ___ftadd (ARG)
               ___ftpack
               ___ftpack (ARG)
               ___lwtoft (ARG)
                 ___ftpack
             ___ftpack (ARG)
             ___lwtoft (ARG)
               ___ftpack
         ___fttol
           ___ftadd (ARG)
             ___ftpack
             ___ftpack (ARG)
             ___lwtoft (ARG)
               ___ftpack
           ___ftpack (ARG)
           ___lwtoft (ARG)
             ___ftpack
         _frexp
   _MotorPosition
     _ForwardPosition
       _StorePosition
         _DATAEE_WriteByte
       _printf
         ___lwdiv
         ___lwmod
           ___lwdiv (ARG)
         _putch
           _EUSART1_Write
     _ReversePosition
       _StorePosition
         _DATAEE_WriteByte
       _printf
         ___lwdiv
         ___lwmod
           ___lwdiv (ARG)
         _putch
           _EUSART1_Write
   _ReadInput
     _CompareLoadValue
     _ExpectedRippleCountRemainingAngle
       ___ftmul
         ___ftadd (ARG)
           ___ftpack
           ___ftpack (ARG)
           ___lwtoft (ARG)
             ___ftpack
         ___ftpack (ARG)
         ___fttol (ARG)
           ___ftadd (ARG)
             ___ftpack
             ___ftpack (ARG)
             ___lwtoft (ARG)
               ___ftpack
           ___ftpack (ARG)
           ___lwtoft (ARG)
             ___ftpack
         ___lwtoft (ARG)
           ___ftpack
         _round (ARG)
           ___ftadd
             ___ftpack
             ___ftpack (ARG)
             ___lwtoft (ARG)
               ___ftpack
           ___ftsub
             ___ftadd
               ___ftpack
               ___ftpack (ARG)
               ___lwtoft (ARG)
                 ___ftpack
             _trunc (ARG)
               ___altoft
                 ___ftpack
                 ___fttol (ARG)
                   ___ftadd (ARG)
                     ___ftpack
                     ___ftpack (ARG)
                     ___lwtoft (ARG)
                       ___ftpack
                   ___ftpack (ARG)
                   ___lwtoft (ARG)
                     ___ftpack
               ___fttol
                 ___ftadd (ARG)
                   ___ftpack
                   ___ftpack (ARG)
                   ___lwtoft (ARG)
                     ___ftpack
                 ___ftpack (ARG)
                 ___lwtoft (ARG)
                   ___ftpack
               _frexp
           _trunc
             ___altoft
               ___ftpack
               ___fttol (ARG)
                 ___ftadd (ARG)
                   ___ftpack
                   ___ftpack (ARG)
                   ___lwtoft (ARG)
                     ___ftpack
                 ___ftpack (ARG)
                 ___lwtoft (ARG)
                   ___ftpack
             ___fttol
               ___ftadd (ARG)
                 ___ftpack
                 ___ftpack (ARG)
                 ___lwtoft (ARG)
                   ___ftpack
               ___ftpack (ARG)
               ___lwtoft (ARG)
                 ___ftpack
             _frexp
       ___fttol
         ___ftadd (ARG)
           ___ftpack
           ___ftpack (ARG)
           ___lwtoft (ARG)
             ___ftpack
         ___ftpack (ARG)
         ___lwtoft (ARG)
           ___ftpack
       ___lwtoft
         ___ftpack
       _round
         ___ftadd
           ___ftpack
           ___ftpack (ARG)
           ___lwtoft (ARG)
             ___ftpack
         ___ftsub
           ___ftadd
             ___ftpack
             ___ftpack (ARG)
             ___lwtoft (ARG)
               ___ftpack
           _trunc (ARG)
             ___altoft
               ___ftpack
               ___fttol (ARG)
                 ___ftadd (ARG)
                   ___ftpack
                   ___ftpack (ARG)
                   ___lwtoft (ARG)
                     ___ftpack
                 ___ftpack (ARG)
                 ___lwtoft (ARG)
                   ___ftpack
             ___fttol
               ___ftadd (ARG)
                 ___ftpack
                 ___ftpack (ARG)
                 ___lwtoft (ARG)
                   ___ftpack
               ___ftpack (ARG)
               ___lwtoft (ARG)
                 ___ftpack
             _frexp
         _trunc
           ___altoft
             ___ftpack
             ___fttol (ARG)
               ___ftadd (ARG)
                 ___ftpack
                 ___ftpack (ARG)
                 ___lwtoft (ARG)
                   ___ftpack
               ___ftpack (ARG)
               ___lwtoft (ARG)
                 ___ftpack
           ___fttol
             ___ftadd (ARG)
               ___ftpack
               ___ftpack (ARG)
               ___lwtoft (ARG)
                 ___ftpack
             ___ftpack (ARG)
             ___lwtoft (ARG)
               ___ftpack
           _frexp
     ___ftmul
       ___ftadd (ARG)
         ___ftpack
         ___ftpack (ARG)
         ___lwtoft (ARG)
           ___ftpack
       ___ftpack (ARG)
       ___fttol (ARG)
         ___ftadd (ARG)
           ___ftpack
           ___ftpack (ARG)
           ___lwtoft (ARG)
             ___ftpack
         ___ftpack (ARG)
         ___lwtoft (ARG)
           ___ftpack
       ___lwtoft (ARG)
         ___ftpack
       _round (ARG)
         ___ftadd
           ___ftpack
           ___ftpack (ARG)
           ___lwtoft (ARG)
             ___ftpack
         ___ftsub
           ___ftadd
             ___ftpack
             ___ftpack (ARG)
             ___lwtoft (ARG)
               ___ftpack
           _trunc (ARG)
             ___altoft
               ___ftpack
               ___fttol (ARG)
                 ___ftadd (ARG)
                   ___ftpack
                   ___ftpack (ARG)
                   ___lwtoft (ARG)
                     ___ftpack
                 ___ftpack (ARG)
                 ___lwtoft (ARG)
                   ___ftpack
             ___fttol
               ___ftadd (ARG)
                 ___ftpack
                 ___ftpack (ARG)
                 ___lwtoft (ARG)
                   ___ftpack
               ___ftpack (ARG)
               ___lwtoft (ARG)
                 ___ftpack
             _frexp
         _trunc
           ___altoft
             ___ftpack
             ___fttol (ARG)
               ___ftadd (ARG)
                 ___ftpack
                 ___ftpack (ARG)
                 ___lwtoft (ARG)
                   ___ftpack
               ___ftpack (ARG)
               ___lwtoft (ARG)
                 ___ftpack
           ___fttol
             ___ftadd (ARG)
               ___ftpack
               ___ftpack (ARG)
               ___lwtoft (ARG)
                 ___ftpack
             ___ftpack (ARG)
             ___lwtoft (ARG)
               ___ftpack
           _frexp
     ___fttol
       ___ftadd (ARG)
         ___ftpack
         ___ftpack (ARG)
         ___lwtoft (ARG)
           ___ftpack
       ___ftpack (ARG)
       ___lwtoft (ARG)
         ___ftpack
     ___lwtoft
       ___ftpack
     _round
       ___ftadd
         ___ftpack
         ___ftpack (ARG)
         ___lwtoft (ARG)
           ___ftpack
       ___ftsub
         ___ftadd
           ___ftpack
           ___ftpack (ARG)
           ___lwtoft (ARG)
             ___ftpack
         _trunc (ARG)
           ___altoft
             ___ftpack
             ___fttol (ARG)
               ___ftadd (ARG)
                 ___ftpack
                 ___ftpack (ARG)
                 ___lwtoft (ARG)
                   ___ftpack
               ___ftpack (ARG)
               ___lwtoft (ARG)
                 ___ftpack
           ___fttol
             ___ftadd (ARG)
               ___ftpack
               ___ftpack (ARG)
               ___lwtoft (ARG)
                 ___ftpack
             ___ftpack (ARG)
             ___lwtoft (ARG)
               ___ftpack
           _frexp
       _trunc
         ___altoft
           ___ftpack
           ___fttol (ARG)
             ___ftadd (ARG)
               ___ftpack
               ___ftpack (ARG)
               ___lwtoft (ARG)
                 ___ftpack
             ___ftpack (ARG)
             ___lwtoft (ARG)
               ___ftpack
         ___fttol
           ___ftadd (ARG)
             ___ftpack
             ___ftpack (ARG)
             ___lwtoft (ARG)
               ___ftpack
           ___ftpack (ARG)
           ___lwtoft (ARG)
             ___ftpack
         _frexp
   _ReadMotorPositionFromEEPROM
     _DATAEE_ReadByte
     _printf
       ___lwdiv
       ___lwmod
         ___lwdiv (ARG)
       _putch
         _EUSART1_Write
   _ResumeMotor
     _CompareLoadValue
     _ExpectedRippleCountRemainingAngle
       ___ftmul
         ___ftadd (ARG)
           ___ftpack
           ___ftpack (ARG)
           ___lwtoft (ARG)
             ___ftpack
         ___ftpack (ARG)
         ___fttol (ARG)
           ___ftadd (ARG)
             ___ftpack
             ___ftpack (ARG)
             ___lwtoft (ARG)
               ___ftpack
           ___ftpack (ARG)
           ___lwtoft (ARG)
             ___ftpack
         ___lwtoft (ARG)
           ___ftpack
         _round (ARG)
           ___ftadd
             ___ftpack
             ___ftpack (ARG)
             ___lwtoft (ARG)
               ___ftpack
           ___ftsub
             ___ftadd
               ___ftpack
               ___ftpack (ARG)
               ___lwtoft (ARG)
                 ___ftpack
             _trunc (ARG)
               ___altoft
                 ___ftpack
                 ___fttol (ARG)
                   ___ftadd (ARG)
                     ___ftpack
                     ___ftpack (ARG)
                     ___lwtoft (ARG)
                       ___ftpack
                   ___ftpack (ARG)
                   ___lwtoft (ARG)
                     ___ftpack
               ___fttol
                 ___ftadd (ARG)
                   ___ftpack
                   ___ftpack (ARG)
                   ___lwtoft (ARG)
                     ___ftpack
                 ___ftpack (ARG)
                 ___lwtoft (ARG)
                   ___ftpack
               _frexp
           _trunc
             ___altoft
               ___ftpack
               ___fttol (ARG)
                 ___ftadd (ARG)
                   ___ftpack
                   ___ftpack (ARG)
                   ___lwtoft (ARG)
                     ___ftpack
                 ___ftpack (ARG)
                 ___lwtoft (ARG)
                   ___ftpack
             ___fttol
               ___ftadd (ARG)
                 ___ftpack
                 ___ftpack (ARG)
                 ___lwtoft (ARG)
                   ___ftpack
               ___ftpack (ARG)
               ___lwtoft (ARG)
                 ___ftpack
             _frexp
       ___fttol
         ___ftadd (ARG)
           ___ftpack
           ___ftpack (ARG)
           ___lwtoft (ARG)
             ___ftpack
         ___ftpack (ARG)
         ___lwtoft (ARG)
           ___ftpack
       ___lwtoft
         ___ftpack
       _round
         ___ftadd
           ___ftpack
           ___ftpack (ARG)
           ___lwtoft (ARG)
             ___ftpack
         ___ftsub
           ___ftadd
             ___ftpack
             ___ftpack (ARG)
             ___lwtoft (ARG)
               ___ftpack
           _trunc (ARG)
             ___altoft
               ___ftpack
               ___fttol (ARG)
                 ___ftadd (ARG)
                   ___ftpack
                   ___ftpack (ARG)
                   ___lwtoft (ARG)
                     ___ftpack
                 ___ftpack (ARG)
                 ___lwtoft (ARG)
                   ___ftpack
             ___fttol
               ___ftadd (ARG)
                 ___ftpack
                 ___ftpack (ARG)
                 ___lwtoft (ARG)
                   ___ftpack
               ___ftpack (ARG)
               ___lwtoft (ARG)
                 ___ftpack
             _frexp
         _trunc
           ___altoft
             ___ftpack
             ___fttol (ARG)
               ___ftadd (ARG)
                 ___ftpack
                 ___ftpack (ARG)
                 ___lwtoft (ARG)
                   ___ftpack
               ___ftpack (ARG)
               ___lwtoft (ARG)
                 ___ftpack
           ___fttol
             ___ftadd (ARG)
               ___ftpack
               ___ftpack (ARG)
               ___lwtoft (ARG)
                 ___ftpack
             ___ftpack (ARG)
             ___lwtoft (ARG)
               ___ftpack
           _frexp
     _ExpectedRippleCountToHome
       ___ftadd
         ___ftpack
         ___ftpack (ARG)
         ___lwtoft (ARG)
           ___ftpack
       ___ftmul
         ___ftadd (ARG)
           ___ftpack
           ___ftpack (ARG)
           ___lwtoft (ARG)
             ___ftpack
         ___ftpack (ARG)
         ___fttol (ARG)
           ___ftadd (ARG)
             ___ftpack
             ___ftpack (ARG)
             ___lwtoft (ARG)
               ___ftpack
           ___ftpack (ARG)
           ___lwtoft (ARG)
             ___ftpack
         ___lwtoft (ARG)
           ___ftpack
         _round (ARG)
           ___ftadd
             ___ftpack
             ___ftpack (ARG)
             ___lwtoft (ARG)
               ___ftpack
           ___ftsub
             ___ftadd
               ___ftpack
               ___ftpack (ARG)
               ___lwtoft (ARG)
                 ___ftpack
             _trunc (ARG)
               ___altoft
                 ___ftpack
                 ___fttol (ARG)
                   ___ftadd (ARG)
                     ___ftpack
                     ___ftpack (ARG)
                     ___lwtoft (ARG)
                       ___ftpack
                   ___ftpack (ARG)
                   ___lwtoft (ARG)
                     ___ftpack
               ___fttol
                 ___ftadd (ARG)
                   ___ftpack
                   ___ftpack (ARG)
                   ___lwtoft (ARG)
                     ___ftpack
                 ___ftpack (ARG)
                 ___lwtoft (ARG)
                   ___ftpack
               _frexp
           _trunc
             ___altoft
               ___ftpack
               ___fttol (ARG)
                 ___ftadd (ARG)
                   ___ftpack
                   ___ftpack (ARG)
                   ___lwtoft (ARG)
                     ___ftpack
                 ___ftpack (ARG)
                 ___lwtoft (ARG)
                   ___ftpack
             ___fttol
               ___ftadd (ARG)
                 ___ftpack
                 ___ftpack (ARG)
                 ___lwtoft (ARG)
                   ___ftpack
               ___ftpack (ARG)
               ___lwtoft (ARG)
                 ___ftpack
             _frexp
       ___fttol
         ___ftadd (ARG)
           ___ftpack
           ___ftpack (ARG)
           ___lwtoft (ARG)
             ___ftpack
         ___ftpack (ARG)
         ___lwtoft (ARG)
           ___ftpack
       ___lwtoft
         ___ftpack
       _round
         ___ftadd
           ___ftpack
           ___ftpack (ARG)
           ___lwtoft (ARG)
             ___ftpack
         ___ftsub
           ___ftadd
             ___ftpack
             ___ftpack (ARG)
             ___lwtoft (ARG)
               ___ftpack
           _trunc (ARG)
             ___altoft
               ___ftpack
               ___fttol (ARG)
                 ___ftadd (ARG)
                   ___ftpack
                   ___ftpack (ARG)
                   ___lwtoft (ARG)
                     ___ftpack
                 ___ftpack (ARG)
                 ___lwtoft (ARG)
                   ___ftpack
             ___fttol
               ___ftadd (ARG)
                 ___ftpack
                 ___ftpack (ARG)
                 ___lwtoft (ARG)
                   ___ftpack
               ___ftpack (ARG)
               ___lwtoft (ARG)
                 ___ftpack
             _frexp
         _trunc
           ___altoft
             ___ftpack
             ___fttol (ARG)
               ___ftadd (ARG)
                 ___ftpack
                 ___ftpack (ARG)
                 ___lwtoft (ARG)
                   ___ftpack
               ___ftpack (ARG)
               ___lwtoft (ARG)
                 ___ftpack
           ___fttol
             ___ftadd (ARG)
               ___ftpack
               ___ftpack (ARG)
               ___lwtoft (ARG)
                 ___ftpack
             ___ftpack (ARG)
             ___lwtoft (ARG)
               ___ftpack
           _frexp
     _Reverse_Dir
       _StartCounting
         _CCP1_SetCompareCount
         _TMR1_Reload
           _TMR1_WriteTimer
         _TMR1_StartTimer
         _TMR4_Period8BitSet
   _SYSTEM_Initialize
     _ADCC_Initialize
     _CCP1_Initialize
     _CLC1_Initialize
     _CWG_Initialize
     _EUSART1_Initialize
     _INTERRUPT_Initialize
     _OSCILLATOR_Initialize
     _PIN_MANAGER_Initialize
     _PMD_Initialize
     _PWM2_Initialize
     _TMR1_Initialize
     _TMR2_Initialize
     _TMR4_Initialize
       _TMR4_SetInterruptHandler
   _StallDetection
     _TMR4_SetInterruptHandler

 _INTERRUPT_InterruptManager (ROOT)
   _CCP1_CompareISR
     Absolute function(Fake) *
     _Compare_ISR *
       _BrakingMechanism
       _TMR1_StopTimer
       _TMR4_StopTimer
         _TMR4_Stop
   _TMR1_GATE_ISR
   _TMR4_ISR
     Absolute function(Fake) *
     _Stall_ISR *
       _BrakingMechanism
       _TMR1_StopTimer
       _TMR4_StopTimer
         _TMR4_Stop
     _TMR4_DefaultInterruptHandler *

 Address spaces:
Name               Size   Autos  Total    Cost      Usage
BIGRAM             CFF      0       0      34        0.0%
EEDATA             400      0       0       0        0.0%
BITBANK12          100      0       0      29        0.0%
BANK12             100      0       0      30        0.0%
BITBANK11          100      0       0      26        0.0%
BANK11             100      0       0      27        0.0%
BITBANK10          100      0       0      24        0.0%
BANK10             100      0       0      25        0.0%
BITBANK9           100      0       0      22        0.0%
BANK9              100      0       0      23        0.0%
BITBANK8           100      0       0      20        0.0%
BANK8              100      0       0      21        0.0%
BITBANK7           100      0       0      18        0.0%
BANK7              100      0       0      19        0.0%
BITBANK6           100      0       0      16        0.0%
BANK6              100      0       0      17        0.0%
BITBANK5           100      0       0      14        0.0%
BANK5              100      0       0      15        0.0%
BITBANK4           100      0       0      12        0.0%
BANK4              100      0       0      13        0.0%
BITBANK3           100      0       0      10        0.0%
BANK3              100      0       0      11        0.0%
BITBANK2           100      0       0       8        0.0%
BANK2              100      0       0       9        0.0%
BITBANK1           100      0       0       6        0.0%
BANK1              100      0       0       7        0.0%
BITBANK0            A0      0       0       4        0.0%
BANK0               A0      5      23       5       21.9%
BITCOMRAM           5E      0       0       0        0.0%
COMRAM              5E     58      5B       1       96.8%
BITBANK14           1F      0       0      31        0.0%
BANK14              1F      0       0      32        0.0%
BIGRAM_1            1F      0       0      33        0.0%
BITSFR_2             0      0       0     200        0.0%
SFR_2                0      0       0     200        0.0%
BITSFR_1             0      0       0     200        0.0%
SFR_1                0      0       0     200        0.0%
BITSFR               0      0       0     200        0.0%
SFR                  0      0       0     200        0.0%
STACK                0      0       0       2        0.0%
NULL                 0      0       0       0        0.0%
ABS                  0      0      7E      28        0.0%
DATA                 0      0      7E       3        0.0%
CODE                 0      0       0       0        0.0%


Microchip Technology PIC18 Macro Assembler V1.45 build -152302408 
Symbol Table                                                                                   Wed Jan 16 12:41:33 2019

                                  ??_TMR4_Period8BitSet 0003  
                                          ___altoft@exp 0031  
                                           __CFG_CP$OFF 000000  
                                                    PL2 147A  
                                                    PL4 17B2  
                                                    PL6 17C0  
                                                    PL8 1188  
                                         ___altoft@sign 0032  
                                        _GetAngleTurned 13DE  
                               __end_of_CCP1_Initialize 1EA2  
                                          ___ftadd@exp1 0019  
                                          ___ftadd@exp2 0018  
                                                   PL10 1196  
                                                   PL20 1564  
                                                   PL12 109C  
                                                   PL30 1EC8  
                                                   PL22 1A20  
                                                   PL14 17CE  
                                                   PL40 1586  
                                                   PL32 157E  
                                                   PL24 10AC  
                                                   PL16 125A  
                                                   PL50 1BBE  
                                                   PL42 1504  
                                                   PL34 1BAE  
                                                   PL26 1572  
                                                   PL18 15FA  
                                                   PL44 119E  
                                                   PL36 1268  
                                                   PL28 13D6  
                                                   PL46 183A  
                                                   PL38 14FA  
                                           __CFG_LVP$ON 000000  
                                                   PL48 1BB8  
                                          ___ftadd@sign 0017  
                                                   l442 1EC6  
                                                   l534 1B12  
                                                   _PR4 000FB5  
                                          __CFG_CPD$OFF 000000  
                                       _timer1ReloadVal 007A  
CCP1_CompareSetInterruptHandler@CompareInterruptHandler 0003  
                               __size_of_PMD_Initialize 0010  
                                       _TMR2_Initialize 1ED2  
                      CCP1_SetCompareCount@compareCount 0003  
                                                   tosl 000FFD  
                                                   wreg 000FE8  
                                   _expectedRippleCount 0062  
                                          __CFG_ZCD$OFF 000000  
                                          ___ftdiv@cntr 0050  
                                          ___ftdiv@sign 0055  
                                                  l1320 1B7E  
                                                  l1160 1B44  
                                                  l1313 1CBC  
                                                  l1147 1A12  
                                                  l1148 1A0E  
                                                  l1327 192A  
                                                  l1336 1976  
                                                  l1355 10CC  
                                                  l4004 1316  
                                                  l4014 18BE  
                                                  l3240 10BE  
                                                  l4042 16B6  
                                                  l4060 11C2  
                                                  l1644 105A  
                                                  l4028 1BD2  
                                                  l3164 19AE  
                                                  l1645 105E  
                                                  l1653 135C  
                                                  l4038 169E  
                                                  l4222 1996  
                                                  l3166 19B6  
                                                  l1655 13A4  
                                                  l4064 11DC  
                                                  l4216 198C  
                                                  l4128 1342  
                                                  l3176 19D4  
                                                  l3192 1AD8  
                                                  l3184 1ABA  
                                                  l3264 1108  
                                                  l3248 10E2  
                                                  l4232 13F2  
                                                  l4082 1204  
                                                  l4146 1380  
                                                  l3186 1AC2  
                                                  l3282 1176  
                                                  l3258 1104  
                                                  l4170 1828  
                                                  l4092 1220  
                                                  l3276 1134  
                                                  l4078 1200  
                                                  l3278 113A  
                                                  l4174 1830  
                                                  l4246 1E5E  
                                                  l4270 1628  
                                                  l1775 19DE  
                                                  l4088 121C  
                                                  l4248 1E62  
                                                  l1785 1AE2  
                                                  l4194 1942  
                                                  l3554 1B48  
                                                  l4198 194A  
                                                  l3912 0FB6  
                                                  l4288 1652  
                                                  l3860 14AE  
                                                  l3940 100A  
                                                  l2972 1F88  
                                                  l3942 1014  
                                                  l3918 0FDA  
                                                  l3774 1EAE  
                                                  l3864 14BA  
                                                  l3856 149C  
                                                  l3952 1038  
                                                  l3944 101C  
                                                  l3882 14EC  
                                                  l3866 14C6  
                                                  l3858 14A0  
                                                  l3954 1042  
                                                  l3868 14D0  
                                                  l3964 1076  
                                                  l3972 1292  
                                                  l3896 1864  
                                                  l3992 12EA  
                                                  l3898 1870  
                                                  l3996 12F2  
                                                  l3988 12DA  
                                                  l3998 12FE  
                                                  STR_1 0F0B  
                                                  STR_2 0F55  
                                                  STR_3 0F26  
                                                  STR_4 0F26  
                                                  STR_5 0F3E  
                                                  u2020 1A56  
                                                  _LATA 000F82  
                                                  _LATB 000F83  
                                                  _LATC 000F84  
                                                  u2400 14DA  
                                                  _LATD 000F85  
                                                  _LATE 000F86  
                                                  u3107 1CA6  
                                                  u3117 1962  
                                                  u2360 1494  
                                                  u2520 0FCC  
                                                  u1625 1B1E  
                                                  u1650 19BA  
                                                  u1626 1B20  
                                                  _T2PR 000FBB  
                                                  u2451 0F7A  
                                                  u2620 1048  
                                                  u2461 0F8E  
                                                  u3077 166C  
                                                  u2550 0FF4  
                                                  u1750 1124  
                                                  u3087 1B68  
                                                  u2720 1302  
                                                  u1680 1AC6  
                                                  u3097 1916  
                                                  u2490 0FA8  
                                                  u1770 117C  
                                                  _T4PR 000FB5  
                                                  u2811 11D2  
                                                  u2661 1280  
                                                  u2590 1022  
                                                  u2670 1288  
                                                  u2910 17EA  
                                                  u2680 12B0  
                                                  u2851 1338  
                                                  u2780 16A8  
                                                  _PMD0 000EDC  
                                                  u2685 12A8  
                                                  _PMD1 000EDD  
                                                  _PMD2 000EDE  
                                                  u2791 11B8  
                                                  u2871 1352  
                                                  _PMD3 000EDF  
                                                  _PMD4 000EE0  
                                                  _PMD5 000EE1  
                               __size_of_CWG_Initialize 001E  
                                                  _WPUA 000F0B  
                                                  _WPUB 000F13  
                                                  _WPUC 000F1B  
                                                  _WPUD 000F20  
                                                  _WPUE 000F28  
                                         _EUSART1_Write 1F86  
                                         __CFG_FCMEN$ON 000000  
                                                  _main 1608  
                                          ___ftpack@arg 0003  
                                          ___ftpack@exp 0006  
                                                  fsr2h 000FDA  
                                                  fsr2l 000FD9  
                                                  btemp 005C  
                                                  prodl 000FF3  
                                                  start 0046  
                                     _forwardBtnPressed 006D  
                                         __CFG_CSWEN$ON 000000  
                            ??_TMR4_SetInterruptHandler 0005  
                                          ___ftmul@cntr 0054  
                                          ___param_bank 000000  
                                          ___ftmul@sign 0055  
                                         __CFG_SCANE$ON 000000  
                                          ___fttol@exp1 0028  
                                __end_of_GetAngleTurned 147A  
                             __size_of_DATAEE_WriteByte 0038  
                                          ___fttol@lval 0024  
                                       ??_StartCounting 0007  
                               __end_of_PWM2_Initialize 1F54  
                        __size_of_OSCILLATOR_Initialize 0010  
                                   __end_of_Compare_ISR 1F40  
                         __end_of_OSCILLATOR_Initialize 1F86  
                                         ??_Forward_Dir 0007  
                                                 _ADACQ 000F57  
                                                 _ADCAP 000F58  
                                                 _ADACT 000F51  
                                                 ?_main 0001  
                                                 _ADCLK 000F52  
                                                 _ADPCH 000F5A  
                                                 _ADREF 000F53  
                                       __end_of___ftadd 109C  
                                         __CFG_WDTE$OFF 000000  
                                                 _ADRPT 000F61  
                                       __end_of___ftdiv 13D6  
                                       _TMR1_StartTimer 1FE0  
                                         _StorePosition 1E6E  
                                       __end_of___ftmul 125A  
                                                 _T1CLK 000FD1  
                                                 _T1CON 000FCE  
                                       __end_of___ftsub 1BFC  
                                       __end_of___fttol 1328  
                                                 _T2CON 000FBC  
                                                 _T4CON 000FB6  
                                                 _T2HLT 000FBD  
                    _ExpectedRippleCountToEndPoint$3522 0056  
                                                 _T4HLT 000FB7  
                                        __CFG_DEBUG$OFF 000000  
                                       __end_of___lwdiv 19E8  
                                                 _T2TMR 000FBA  
                                                 _T2RST 000FBF  
                                       __end_of___lwmod 1AEC  
                                                 _T4TMR 000FB4  
                                                 _T4RST 000FB9  
                                                 i2l396 0024  
                                                 i2l397 003A  
                                                 i2l398 0030  
                                                 _OSCEN 000ED7  
                                                 _TMR1H 000FCD  
                                                 _TMR1L 000FCC  
                                                 _TRISA 000F87  
                                                 _TRISB 000F88  
                                                 _TRISC 000F89  
                                                 _TRISD 000F8A  
                                                 _TRISE 000F8B  
                              __size_of_ReversePosition 0036  
                                         __CFG_WRT0$OFF 000000  
                                       _TMR4_Initialize 1D28  
             __end_of_ExpectedRippleCountRemainingAngle 1AAE  
            __size_of_ExpectedRippleCountRemainingAngle 0040  
                   ??_ExpectedRippleCountRemainingAngle 0056  
                    ?_ExpectedRippleCountRemainingAngle 0001  
                     _ExpectedRippleCountRemainingAngle 1A6E  
                                         __CFG_WRT1$OFF 000000  
                                         __CFG_WRT2$OFF 000000  
                                         __CFG_WRT3$OFF 000000  
                                        __CFG_EBTR0$OFF 000000  
                                        __CFG_EBTR1$OFF 000000  
                                        __CFG_EBTR2$OFF 000000  
                                        __CFG_EBTR3$OFF 000000  
                                         __CFG_WRTB$OFF 000000  
                                         __CFG_WRTC$OFF 000000  
                                      __end_of_TMR4_ISR 1E18  
                                         __CFG_WRTD$OFF 000000  
                           TMR4_Period8BitSet@periodVal 0003  
                                       _DATAEE_ReadByte 1EFE  
                                        __CFG_EBTRB$OFF 000000  
                _ExpectedRippleCountRemainingAngle$3520 0056  
                                       __end_of_dpowers 0F0B  
                                                 _frexp 18AA  
                                    __size_of_TMR4_Stop 0004  
                                      ?_CCP1_CompareISR 0001  
                                                 _dummy 0071  
                                    __CFG_MCLRE$EXTMCLR 000000  
                                         ___ftpack@sign 0007  
                                                 _putch 1FCC  
                                                 _round 1590  
                        ?_ExpectedRippleCountToEndPoint 0001  
                          ?_ReadMotorPositionFromEEPROM 0001  
                                                 _trunc 167E  
                                        ?_EUSART1_Write 0001  
                               __end_of_TMR1_Initialize 1C98  
                                                 pclath 000FFA  
                                                 tablat 000FF5  
                                                 status 000FD8  
                                                 wtemp6 005D  
             ReadMotorPositionFromEEPROM@actualPosition 001E  
                                       _TMR1_WriteTimer 1EBA  
                                        _remainingAngle 0081  
                                       __initialization 1BFC  
                            __end_of_EUSART1_Initialize 1EFE  
                                          __end_of_main 167E  
                         __size_of_CCP1_SetCompareCount 0012  
                           ??_ExpectedRippleCountToHome 0056  
                                       ?_GetAngleTurned 0001  
                               __end_of_TMR2_Initialize 1EE8  
                           ?_INTERRUPT_InterruptManager 0001  
                                        ?_StorePosition 0001  
                                                ??_main 007F  
                                         ___fttol@sign1 0023  
                                      ?_CCP1_Initialize 0001  
                                 __end_of_MotorPosition 1EBA  
                                         __activetblptr 000003  
                            CCP1_SetCompareCount@module 0005  
                             StorePosition@writeByteLSB 0006  
                             StorePosition@writeByteMSB 0007  
                                   __end_of_Forward_Dir 1BAE  
                                                _ADCON0 000F5B  
                                                _ADCON1 000F54  
                                                _ADCON2 000F55  
                                                _ADCON3 000F56  
                                                ?_frexp 0003  
                                      __end_of___altoft 18AA  
                                                _ADLTHH 000F66  
                                                _ADLTHL 000F65  
                                                _CCPR1H 000FAA  
                                                _CCPR2H 000FA6  
                                                _CCPR1L 000FA9  
                                                _CCPR2L 000FA5  
                                                _ADSTAT 000F60  
                                                _ADUTHH 000F68  
                                                _ADUTHL 000F67  
                                                _ANSELA 000F0C  
                                                ?_putch 0001  
                                                _ANSELB 000F14  
                                                _ANSELC 000F1C  
                                                _ANSELD 000F21  
                                                _ANSELE 000F29  
                                      __end_of___ftpack 14FA  
                                                ?_round 0041  
                                                _T1GATE 000FD0  
                                                _T1GCON 000FCF  
                                                ?_trunc 0033  
                                                _RB0PPS 000EEA  
                                                _RC1STA 000F9C  
                                                _RD1PPS 000EFB  
                                        _ReadInput$3519 007C  
                               TMR1_WriteTimer@timerVal 0003  
                                                _RD2PPS 000EFC  
                                                _RD3PPS 000EFD  
                                                _ODCONA 000F0A  
                                                _ODCONB 000F12  
                                                _ODCONC 000F1A  
                                                _RC6PPS 000EF8  
                                                _ODCOND 000F1F  
                                                _ODCONE 000F27  
                                        __CFG_WDTCCS$SC 000000  
                                      __end_of___lwtoft 1DBC  
                                                _OSCFRQ 000ED9  
                         ??_ReadMotorPositionFromEEPROM 0019  
                                                _TX1REG 000F99  
                                                _TX1STA 000F9D  
                     __size_of_CWG_AutoShutdownEventSet 0004  
                             ?_CWG_AutoShutdownEventSet 0001  
                                    __size_of_ReadInput 0062  
                                        __CFG_PWRTE$OFF 000000  
                                        __CFG_XINST$OFF 000000  
                                 __end_of_TMR1_GATE_ISR 1FEC  
                                           _Compare_ISR 1F2A  
                             __CFG_RSTOSC$HFINTOSC_1MHZ 000000  
                                         ??_Reverse_Dir 0007  
                              __end_of_BrakingMechanism 1FB8  
                           __size_of_CheckForwardButton 0034  
                                       _CheckHomeButton 1906  
                               __end_of_TMR1_StartTimer 1FE4  
                                          ?_TMR1_Reload 0001  
                                             ??___ftadd 0014  
                                        __CFG_STVREN$ON 000000  
                                             ??___ftdiv 004D  
                                     __end_of_TMR4_Stop 1FF4  
                                             ??___ftmul 004D  
                                             ??___ftsub 0041  
                                             ??___fttol 001E  
                                         ??_ResumeMotor 0059  
                                             ??___lwdiv 0007  
                                             ??___lwmod 000E  
                                        _homeBtnPressed 006F  
                                      ?_PWM2_Initialize 0001  
                               __end_of_TMR4_Initialize 1D50  
                                                clear_0 1C1A  
                                                _secram 000D00  
                                                _printf 10B8  
                               __end_of_DATAEE_ReadByte 1F14  
                                 ___ftmul@f3_as_product 0051  
                                       _ADCC_Initialize 1CFC  
                  __end_of_TMR4_DefaultInterruptHandler 1FFC  
                 __size_of_TMR4_DefaultInterruptHandler 0002  
                          _TMR4_DefaultInterruptHandler 1FFA  
                                        _PMD_Initialize 1F66  
                                          __mediumconst 0000  
                                    __size_of_Stall_ISR 0016  
                                                tblptrh 000FF7  
                                                tblptrl 000FF6  
                                                tblptru 000FF8  
                                                round@f 0044  
                                                round@x 0041  
                                       ??_EUSART1_Write 0003  
                              __size_of_ForwardPosition 0038  
              TMR4_SetInterruptHandler@InterruptHandler 0003  
                                       _CLC1_Initialize 1E36  
                             _ExpectedRippleCountToHome 1768  
                                                trunc@i 0036  
                                                trunc@x 0033  
                                     _actualRippleCount 0064  
                               __end_of_TMR1_WriteTimer 1EC8  
                                        _CWG_Initialize 1DDC  
                         __size_of_INTERRUPT_Initialize 0004  
                                      _reverseDirection 0072  
                                     ??_ReversePosition 0019  
                                      ?_TMR1_Initialize 0001  
                                     _SYSTEM_Initialize 1C30  
                                            __accesstop 0060  
                               __end_of__initialization 1C26  
                                            ___altoft@c 0029  
                             __size_of_CompareLoadValue 0030  
                                            ___ftadd@f1 000E  
                                            ___ftadd@f2 0011  
                                    ?_SYSTEM_Initialize 0001  
                                         ___rparam_used 000001  
                                            ___ftdiv@f1 0047  
                                            ___ftdiv@f2 004A  
                                            ___ftdiv@f3 0051  
                                            ___ftmul@f1 0047  
                                            ___ftmul@f2 004A  
                                            ___ftsub@f1 003B  
                                            ___ftsub@f2 003E  
                                            ___fttol@f1 001A  
                                        __pcstackCOMRAM 0001  
                                          __pidataBANK0 1FF8  
                                   ??_SYSTEM_Initialize 0005  
                                             ?_TMR4_ISR 0001  
                                      _DATAEE_WriteByte 1AEC  
                                         __end_of_frexp 1906  
                                       ??_StorePosition 0006  
                                         __end_of_putch 1FD4  
                                         __end_of_round 15FA  
                                         __end_of_trunc 16F4  
                                      ?_TMR2_Initialize 0001  
                                            __end_ofPL2 1488  
                                            __end_ofPL4 17C0  
                                            __end_ofPL6 17CE  
                                            __end_ofPL8 1196  
                                __end_of_PMD_Initialize 1F76  
                                    _CheckReverseButton 1B5A  
                                            ___lwtoft@c 000B  
                                   __end_of_Reverse_Dir 1D74  
                                           _Forward_Dir 1B90  
                                          _CWG1CON0bits 000F3F  
                                     __end_of_ReadInput 183A  
                                   __end_of_ResumeMotor 1E6E  
                               __size_of_TMR1_ReadTimer 0020  
                         ?_TMR4_DefaultInterruptHandler 0001  
                                   ?_CheckReverseButton 0001  
                                __end_of_CWG_Initialize 1DFA  
                                          _angleDesired 006A  
                                               ??_frexp 0007  
                             __end_of_SYSTEM_Initialize 1C64  
                                               ??_putch 0004  
                                               ??_round 0044  
                                               ??_trunc 0036  
                                            __pbssBANK0 0060  
                               __end_of_CheckHomeButton 1952  
                                 _TMR4_InterruptHandler 0078  
                                     __end_of_Stall_ISR 1F2A  
                                  ??_CheckReverseButton 0007  
                           __size_of_TMR4_Period8BitSet 0008  
                                      ?_TMR1_StartTimer 0001  
                                       __CFG_PPS1WAY$ON 000000  
                                            ??_TMR4_ISR 0001  
                               __end_of_ADCC_Initialize 1D28  
                                               _CCP1CON 000FAB  
                                               _CCP2CON 000FA7  
                                             ?___altoft 0029  
                                               _CLC1CON 000E27  
                                               _CLC1POL 000E28  
                                               _CLC1PPS 000E1F  
                                      ?_TMR4_Initialize 0001  
                                             ?___ftpack 0003  
                                               _ADSTPTH 000F64  
                                               _ADSTPTL 000F63  
                                               ?_printf 000F  
                                       ?_PMD_Initialize 0001  
                                               _CWG1DBF 000F3E  
                                               _CWG1AS0 000F41  
                                               _CWG1AS1 000F42  
                                               _CWG1DBR 000F3D  
                                               _CWG1ISM 000F3C  
                                               _CWG1STR 000F43  
                               __size_of_TMR1_StopTimer 0004  
                                             ?___lwtoft 000B  
                                      ?_DATAEE_ReadByte 0001  
                               __end_of_CLC1_Initialize 1E52  
                                               _SP1BRGH 000F9B  
                                               _SP1BRGL 000F9A  
                                               _OSCCON1 000ED3  
                                               _OSCCON3 000ED5  
                                          _getCountDone 0074  
                                               _NVMADRH 000F7A  
                                               _NVMADRL 000F79  
                                               _NVMADRU 000F7B  
                                               _OSCTUNE 000ED8  
                                               _NVMDATL 000F7C  
                                               _NVMCON2 000F81  
                                       ?_CWG_Initialize 0001  
                                               _SLRCONA 000F09  
                                               _SLRCONB 000F11  
                                               _SLRCONC 000F19  
                                               _SLRCOND 000F1E  
                                               _SLRCONE 000F26  
                               __size_of_CheckEndButton 004C  
                                      ?_TMR1_WriteTimer 0003  
                                  DATAEE_WriteByte@bAdd 0004  
                               __size_of_StallDetection 000C  
                                     ??_ForwardPosition 0019  
                                      ??_GetAngleTurned 0056  
                                               __Hparam 0000  
                                               __Lparam 0000  
                                           _Reverse_Dir 1D50  
                               __size_of_TMR4_StopTimer 0004  
                                               ___ftadd 0F6A  
                                               ___ftdiv 1328  
                                               ___ftmul 11A8  
                                               ___ftsub 1BC6  
                                               ___fttol 1270  
                                               ___lwdiv 199E  
                                               ___lwmod 1AAE  
                                          __psmallconst 0F00  
                                           _ResumeMotor 1E52  
                                            ??___altoft 002D  
                                  __size_of_TMR1_Reload 000C  
                                               __pcinit 1BFC  
                                            ??___ftpack 0008  
                                               __ramtop 0F00  
                              TMR1_ReadTimer@readValLow 000A  
                                 __end_of_StartCounting 1D98  
                                               __ptext0 1608  
                                               __ptext1 1F94  
                                               __ptext2 1C30  
                                               __ptext3 1D28  
                                               __ptext4 1FB8  
                                               __ptext5 1ED2  
                                               __ptext6 1C64  
                                               __ptext7 1F40  
                                               __ptext8 1F66  
                                               __ptext9 16F4  
                                       __size_of_printf 00D0  
                                            ??___lwtoft 000E  
                             TMR1_ReadTimer@readValHigh 0009  
                                             _T1CONbits 000FCE  
                                               _dpowers 0F01  
                                 _OSCILLATOR_Initialize 1F76  
                      __end_of_CWG_AutoShutdownEventSet 1FE8  
                                             _T4CONbits 000FB6  
                                    _EUSART1_Initialize 1EE8  
                              ??_PIN_MANAGER_Initialize 0003  
                     __size_of_TMR4_SetInterruptHandler 000A  
                             ?_TMR4_SetInterruptHandler 0003  
                          __end_of_CCP1_SetCompareCount 1F66  
               __end_of_CCP1_CompareSetInterruptHandler 1FCC  
              __size_of_CCP1_CompareSetInterruptHandler 000A  
                     ??_CCP1_CompareSetInterruptHandler 0005  
                      ?_CCP1_CompareSetInterruptHandler 0003  
                       _CCP1_CompareSetInterruptHandler 1FC2  
                            __size_of_SYSTEM_Initialize 0034  
                                  end_of_initialization 1C26  
                        ??_TMR4_DefaultInterruptHandler 0001  
                                   ?_EUSART1_Initialize 0001  
                                      _CompareLoadValue 1CCC  
                                      ?_CheckHomeButton 0001  
                              __size_of_CCP1_CompareISR 001E  
                    __size_of_ExpectedRippleCountToHome 004A  
                                          ?_Compare_ISR 0001  
                                               printf@c 0018  
                                               printf@f 000F  
                                               postdec2 000FDD  
                                               postinc0 000FEE  
                                               postinc2 000FDE  
                                     ?_BrakingMechanism 0001  
                                      ?_ADCC_Initialize 0001  
                                  ??_EUSART1_Initialize 0003  
                                 __CFG_WDTCPS$WDTCPS_31 000000  
                                    ??_BrakingMechanism 0001  
                                             _PORTBbits 000F8D  
                                             _PORTCbits 000F8E  
                                             _TMR4_Stop 1FF0  
                                       _ReversePosition 1B24  
                                      ?_CLC1_Initialize 0001  
                                        _TMR1_ReadTimer 1DBC  
                                     _reverseBtnPressed 006C  
                          _CCP1_CompareInterruptHandler 0076  
                              __size_of_CCP1_Initialize 0018  
                                   EUSART1_Write@txData 0003  
                                      __CFG_FEXTOSC$OFF 000000  
                              __end_of_DATAEE_WriteByte 1B24  
                                           ___ftdiv@exp 0054  
                            __end_of_CheckForwardButton 1CCC  
                                __size_of_MotorPosition 0018  
                                      _forwardDirection 0073  
                                           ___ftmul@exp 0050  
                                   _GetAngleTurned$3523 0056  
                          __end_of_INTERRUPT_Initialize 1FE0  
                                     __size_of_TMR4_ISR 001E  
                                        _TMR1_StopTimer 1FF4  
                                ?_OSCILLATOR_Initialize 0001  
                                __end_of_TMR1_ReadTimer 1DDC  
                                          ?_Forward_Dir 0001  
                                            ?_TMR4_Stop 0001  
                                        __end_of_printf 1188  
                                           __end_ofPL10 119E  
                                           __end_ofPL20 1572  
                                           __end_ofPL12 10AC  
                                           __end_ofPL30 1ED2  
                                           __end_ofPL22 1A2E  
                                           __end_ofPL14 17D8  
                                           __end_ofPL40 1590  
                                           __end_ofPL32 1586  
                                           __end_ofPL24 10B8  
                                           __end_ofPL16 1268  
                                           __end_ofPL50 1BC6  
                                           __end_ofPL42 150E  
                                           __end_ofPL34 1BB8  
                                           __end_ofPL26 157E  
                                           __end_ofPL18 1608  
                                           __end_ofPL44 11A8  
                                           __end_ofPL36 1270  
                                           __end_ofPL28 13DE  
                                           __end_ofPL46 1844  
                                           __end_ofPL38 1504  
                                           __end_ofPL48 1BBE  
                                   start_initialization 1BFC  
                              __size_of_PWM2_Initialize 0014  
                       __size_of_PIN_MANAGER_Initialize 0074  
                                             _ReadInput 17D8  
                                __size_of_TMR1_GATE_ISR 0004  
                                        _CheckEndButton 1952  
                   __end_of_ReadMotorPositionFromEEPROM 1A6E  
                           _ReadMotorPositionFromEEPROM 1A2E  
                              _CWG_AutoShutdownEventSet 1FE4  
                                           putch@txData 0004  
                                 __end_of_EUSART1_Write 1F94  
                                            frexp@value 0003  
                                        _StallDetection 1F94  
                                   DATAEE_ReadByte@bAdd 0003  
                                      __CFG_LPBOREN$OFF 000000  
                              __size_of_TMR1_Initialize 0034  
                                        _TMR4_StopTimer 1FEC  
                                      ??_PMD_Initialize 0003  
                                         _endBtnPressed 006E  
                                  _CCP1_SetCompareCount 1F54  
                               __end_of_ReversePosition 1B5A  
                                           _CCPTMRSbits 000FAD  
                                     ??_CCP1_CompareISR 0001  
                                __end_of_TMR1_StopTimer 1FF8  
                                           __pdataBANK0 0081  
                                             _Stall_ISR 1F14  
                                 __end_of_StorePosition 1E8A  
                                              ??_printf 0012  
                                       ?_TMR1_ReadTimer 0003  
                                      ??_CWG_Initialize 0003  
                                     __size_of___altoft 0066  
                                     __size_of___ftpack 0072  
                                         _MotorPosition 1EA2  
                                           __pbssCOMRAM 0059  
                                __end_of_CheckEndButton 199E  
                                     __size_of___lwtoft 0024  
                                         __pcstackBANK0 007C  
                                       _ForwardPosition 19E8  
                              __size_of_TMR2_Initialize 0016  
                                            ?_ReadInput 0001  
                                __end_of_StallDetection 1FA0  
                                           _CWG1AS0bits 000F41  
                                     ??_CCP1_Initialize 0003  
                                             __pnvBANK0 0076  
                                      _totalAngleTurned 0059  
                                __end_of_TMR4_StopTimer 1FF0  
                            __end_of_TMR4_Period8BitSet 1FDC  
                                      ___lwdiv@dividend 0003  
                                _PIN_MANAGER_Initialize 16F4  
                                           _angleTurned 0068  
                ReadMotorPositionFromEEPROM@readByteLSB 001D  
                ReadMotorPositionFromEEPROM@readByteMSB 001B  
                           __size_of_CheckReverseButton 0036  
                                         _TMR1_GATE_ISR 1FE8  
                                 ?_CCP1_SetCompareCount 0003  
                                             __pintcode 0008  
                                          ?_Reverse_Dir 0001  
                      __end_of_TMR4_SetInterruptHandler 1FC2  
                                              ?___ftadd 000E  
                                              ?___ftdiv 0047  
                                              ?___ftmul 0047  
                                              ?___ftsub 003B  
                                              ?___fttol 001A  
                                  __size_of_Compare_ISR 0016  
                                              ?___lwdiv 0003  
                                              ?___lwmod 000A  
                                          ?_ResumeMotor 0001  
                                       ?_TMR1_StopTimer 0001  
                                            ?_Stall_ISR 0001  
                          ??_INTERRUPT_InterruptManager 0001  
                              __end_of_CompareLoadValue 1CFC  
                                           ??_TMR4_Stop 0001  
                                        ?_MotorPosition 0001  
                                              _BAUD1CON 000F9E  
                                           __smallconst 0F00  
                                              _CLC1GLS0 000E2D  
                                              _CLC1GLS1 000E2E  
                                              _CLC1GLS2 000E2F  
                                              _CLC1GLS3 000E30  
                                              _CLC1SEL0 000E29  
                                              _CLC1SEL1 000E2A  
                                              _CLC1SEL2 000E2B  
                                              _CLC1SEL3 000E2C  
                              __size_of_TMR1_StartTimer 0004  
                                       ?_CheckEndButton 0001  
                              __size_of_TMR4_Initialize 0028  
                                      ___lwdiv@quotient 0007  
                                              _CWG1CON0 000F3F  
                                              _CWG1CON1 000F40  
                                        __size_of_frexp 005C  
                                              _T2CLKCON 000FBE  
                              __size_of_DATAEE_ReadByte 0016  
                                       ?_StallDetection 0001  
                                              _T4CLKCON 000FB8  
                                        __size_of_putch 0008  
                                        __size_of_round 006A  
                                        __size_of_trunc 0076  
                                  _INTERRUPT_Initialize 1FDC  
                                              _CWGINPPS 000EAC  
                                     ??_PWM2_Initialize 0003  
                                              _LATAbits 000F82  
                                              _PIE4bits 000EC1  
                                              _PIE5bits 000EC2  
                                              _PIE6bits 000EC3  
                                       ?_TMR4_StopTimer 0001  
                              __size_of_TMR1_WriteTimer 000E  
                   __size_of_INTERRUPT_InterruptManager 003E  
                                        ?_TMR1_GATE_ISR 0001  
                                              _PIR3bits 000EC8  
                                              _PIR4bits 000EC9  
                                              _PIR5bits 000ECA  
                                              _PIR6bits 000ECB  
                                         ??_TMR1_Reload 0005  
                                              _TMR4_ISR 1DFA  
                                      ?_ReversePosition 0001  
                             _TMR1_GateInterruptHandler 0060  
                               __end_of_ForwardPosition 1A20  
                                     ??_TMR1_Initialize 0003  
                                            printf@flag 0014  
                                            printf@prec 0015  
                                  __size_of_Forward_Dir 001E  
                                 DATAEE_WriteByte@bData 0003  
                                           ??_ReadInput 0059  
                             __size_of_BrakingMechanism 000C  
                                 ?_INTERRUPT_Initialize 0001  
                                     ?_DATAEE_WriteByte 0003  
                                      _compareLoadValue 0066  
                                     ??_TMR2_Initialize 0003  
                                    ??_DATAEE_WriteByte 0004  
                                         _reverseOrigin 005B  
                                __size_of_StartCounting 0024  
                                             frexp@eptr 0006  
                                              __Hrparam 0000  
                                ??_CCP1_SetCompareCount 0005  
                                              __Lrparam 0000  
                                    __CFG_BOREN$SBORDIS 000000  
                                 TMR1_ReadTimer@readVal 0007  
                               ??_OSCILLATOR_Initialize 0003  
                              __size_of_CheckHomeButton 004C  
                                           ??_Stall_ISR 0001  
                                      __size_of___ftadd 0132  
                                      __size_of___ftdiv 00AE  
                                              ___altoft 1844  
                                      __size_of___ftmul 00B2  
                                      __size_of___ftsub 0036  
                                      __size_of___fttol 00B8  
                           __size_of_EUSART1_Initialize 0016  
                                      __size_of___lwdiv 004A  
                                      __size_of___lwmod 003E  
                       ??_ExpectedRippleCountToEndPoint 0056  
                                       ??_MotorPosition 0019  
                                              ___ftpack 1488  
                               __size_of_GetAngleTurned 009C  
                              _TMR4_SetInterruptHandler 1FB8  
                                            _CWG1CLKCON 000F3B  
                                    _CheckForwardButton 1C98  
                            ??_CWG_AutoShutdownEventSet 0003  
                                   __end_of_TMR1_Reload 1FAC  
                                              ___lwtoft 1D98  
                              __size_of_ADCC_Initialize 002C  
                                       ___lwdiv@divisor 0005  
                                       ___lwdiv@counter 0009  
                                   ?_CheckForwardButton 0001  
                                              __ptext10 1F76  
                                              __ptext11 1FDC  
                                              __ptext20 17D8  
                                              __ptext12 1EE8  
                                              __ptext21 1EA2  
                                              __ptext13 1DDC  
                                              __ptext30 1AAE  
                                              __ptext22 1B24  
                                              __ptext14 1E36  
                                              __ptext31 199E  
                                              __ptext23 19E8  
                                              __ptext15 1E8A  
                                              __ptext40 1B90  
                                              __ptext32 1328  
                                              __ptext24 1E6E  
                                              __ptext16 1CFC  
                                              __ptext41 1D74  
                                              __ptext33 1DBC  
                                              __ptext25 1AEC  
                                              __ptext17 1E52  
                                              __ptext50 167E  
                                              __ptext42 1FD4  
                                              __ptext34 1B5A  
                                              __ptext26 13DE  
                                              __ptext18 1A2E  
                                              __ptext51 18AA  
                                              __ptext43 1FE0  
                                              __ptext35 1906  
                                              __ptext27 10B8  
                                              __ptext19 1EFE  
                                              __ptext60 1FE4  
                                              __ptext52 1270  
                                              __ptext44 1FA0  
                                              __ptext36 1D50  
                                              __ptext28 1FCC  
                                              __ptext61 1FC2  
                                              __ptext53 1844  
                                              __ptext45 1EBA  
                                              __ptext37 1768  
                                              __ptext29 1F86  
                                              __ptext70 1FF0  
                                              __ptext54 1BC6  
                                              __ptext46 1F54  
                                              __ptext38 1C98  
                                              __ptext71 1FF4  
                                              __ptext63 1DFA  
                                              __ptext55 0F6A  
                                              __ptext47 150E  
                                              __ptext39 1952  
                                              __ptext72 1FAC  
                                              __ptext64 1F14  
                                              __ptext56 1D98  
                                              __ptext48 1A6E  
                                              __ptext73 0000  
                                              __ptext65 1FFA  
                                              __ptext57 11A8  
                                              __ptext49 1590  
                                              __ptext66 1FE8  
                                              __ptext58 1488  
                                              __ptext67 1E18  
                                              __ptext59 1CCC  
                                              __ptext68 1F2A  
                                              __ptext69 1FEC  
                                     ??_TMR1_StartTimer 0003  
                              __size_of_CLC1_Initialize 001C  
                           DATAEE_WriteByte@GIEBitValue 0005  
                                            trunc@expon 0039  
                                     ??_TMR4_Initialize 0005  
                                         __size_of_main 0076  
                                       _CCP1_CompareISR 1E18  
                                       ??_TMR1_GATE_ISR 0001  
                                              _inputSet 0075  
                                     ??_DATAEE_ReadByte 0003  
                                  __CFG_WDTCWS$WDTCWS_7 000000  
                                    __CFG_BORV$VBOR_245 000000  
                  __size_of_ReadMotorPositionFromEEPROM 0040  
                                  ??_CheckForwardButton 0007  
                                      ??_TMR1_ReadTimer 0005  
                                              int$flags 005C  
                            ?_ExpectedRippleCountToHome 0001  
                    __end_of_INTERRUPT_InterruptManager 0046  
                            _INTERRUPT_InterruptManager 0008  
                                  __size_of_Reverse_Dir 0024  
                                             printf@val 0016  
                                     ??_TMR1_WriteTimer 0005  
                                      ?_ForwardPosition 0001  
                                  __size_of_ResumeMotor 001C  
                                         _StartCounting 1D74  
                                            _INLVLBbits 000F10  
                                            _INTCONbits 000FF2  
                                           _NVMCON0bits 000F7F  
                                           _NVMCON1bits 000F80  
                                          _motorStalled 0070  
                                       _CCP1_Initialize 1E8A  
                                ??_INTERRUPT_Initialize 0003  
                                              intlevel2 0000  
                                      ___lwmod@dividend 000A  
                               ?_PIN_MANAGER_Initialize 0001  
                                     __CFG_CLKOUTEN$OFF 000000  
                        _ExpectedRippleCountToHome$3521 0056  
                                      ??_TMR1_StopTimer 0001  
                                           _TMR1_Reload 1FA0  
                                              printf@ap 0013  
                     __end_of_ExpectedRippleCountToHome 17B2  
                                __size_of_EUSART1_Write 000E  
                                      ??_CheckEndButton 007C  
                                        ?_StartCounting 0001  
                                     ?_CompareLoadValue 0001  
                                    _TMR4_Period8BitSet 1FD4  
                                     ??_CheckHomeButton 007C  
                                       ___lwmod@divisor 000C  
                                       _PWM2_Initialize 1F40  
                                      ??_StallDetection 0005  
                                    ??_CompareLoadValue 0003  
                 __end_of_ExpectedRippleCountToEndPoint 1564  
                __size_of_ExpectedRippleCountToEndPoint 0056  
                         _ExpectedRippleCountToEndPoint 150E  
                                       ___lwmod@counter 000E  
                                      _BrakingMechanism 1FAC  
                                   ?_TMR4_Period8BitSet 0001  
                               __end_of_CCP1_CompareISR 1E36  
                        __end_of_PIN_MANAGER_Initialize 1768  
                                     ??_ADCC_Initialize 0003  
                                      ??_TMR4_StopTimer 0001  
                                __size_of_StorePosition 001C  
                            __end_of_CheckReverseButton 1B90  
                                       _TMR1_Initialize 1C64  
                                     ??_CLC1_Initialize 0003  
                                         ??_Compare_ISR 0001  
